(dp0
S'0000001285'
p1
(dp2
S'date'
p3
S'20130420'
p4
sS'secs'
p5
I1366496788
sS'cameraIdentifier'
p6
S'camera'
p7
sS'nsecs'
p8
I721322788
ssS'0000001217'
p9
(dp10
g3
g4
sg5
I1366496787
sg6
S'camera'
p11
sg8
I361271188
ssS'0000000703'
p12
(dp13
g3
g4
sg5
I1366496777
sg6
S'camera'
p14
sg8
I80880633
ssS'0000000994'
p15
(dp16
g3
g4
sg5
I1366496782
sg6
S'camera'
p17
sg8
I901102263
ssS'0000001210'
p18
(dp19
g3
g4
sg5
I1366496787
sg6
S'camera'
p20
sg8
I221265871
ssS'0000000702'
p21
(dp22
g3
g4
sg5
I1366496777
sg6
S'camera'
p23
sg8
I60879856
ssS'0000000329'
p24
(dp25
g3
g4
sg5
I1366496769
sg6
S'camera'
p26
sg8
I600601172
ssS'0000000328'
p27
(dp28
g3
g4
sg5
I1366496769
sg6
S'camera'
p29
sg8
I580600448
ssS'0000001051'
p30
(dp31
g3
g4
sg5
I1366496784
sg6
S'camera'
p32
sg8
I41144820
ssS'0000001284'
p33
(dp34
g3
g4
sg5
I1366496788
sg6
S'camera'
p35
sg8
I701322044
ssS'0000000046'
p36
(dp37
g3
g4
sg5
I1366496763
sg6
S'camera'
p38
sg8
I940395141
ssS'0000000047'
p39
(dp40
g3
g4
sg5
I1366496763
sg6
S'camera'
p41
sg8
I960395866
ssS'0000000044'
p42
(dp43
g3
g4
sg5
I1366496763
sg6
S'camera'
p44
sg8
I900393697
ssS'0000000045'
p45
(dp46
g3
g4
sg5
I1366496763
sg6
S'camera'
p47
sg8
I920394415
ssS'0000000042'
p48
(dp49
g3
g4
sg5
I1366496763
sg6
S'camera'
p50
sg8
I860392249
ssS'0000000043'
p51
(dp52
g3
g4
sg5
I1366496763
sg6
S'camera'
p53
sg8
I880392971
ssS'0000000040'
p54
(dp55
g3
g4
sg5
I1366496763
sg6
S'camera'
p56
sg8
I820390781
ssS'0000000041'
p57
(dp58
g3
g4
sg5
I1366496763
sg6
S'camera'
p59
sg8
I840391523
ssS'0000000121'
p60
(dp61
g3
g4
sg5
I1366496765
sg6
S'camera'
p62
sg8
I440449638
ssS'0000000120'
p63
(dp64
g3
g4
sg5
I1366496765
sg6
S'camera'
p65
sg8
I420448895
ssS'0000000123'
p66
(dp67
g3
g4
sg5
I1366496765
sg6
S'camera'
p68
sg8
I480451118
ssS'0000000122'
p69
(dp70
g3
g4
sg5
I1366496765
sg6
S'camera'
p71
sg8
I460450364
ssS'0000000125'
p72
(dp73
g3
g4
sg5
I1366496765
sg6
S'camera'
p74
sg8
I520452555
ssS'0000000124'
p75
(dp76
g3
g4
sg5
I1366496765
sg6
S'camera'
p77
sg8
I500451830
ssS'0000000048'
p78
(dp79
g3
g4
sg5
I1366496763
sg6
S'camera'
p80
sg8
I980396586
ssS'0000000049'
p81
(dp82
g3
g4
sg5
I1366496764
sg6
S'camera'
p83
sg8
I397300
ssS'0000000323'
p84
(dp85
g3
g4
sg5
I1366496769
sg6
S'camera'
p86
sg8
I480596801
ssS'0000001274'
p87
(dp88
g3
g4
sg5
I1366496788
sg6
S'camera'
p89
sg8
I501314455
ssS'0000000322'
p90
(dp91
g3
g4
sg5
I1366496769
sg6
S'camera'
p92
sg8
I460596076
ssS'0000001248'
p93
(dp94
g3
g4
sg5
I1366496787
sg6
S'camera'
p95
sg8
I981294738
ssS'0000000510'
p96
(dp97
g3
g4
sg5
I1366496773
sg6
S'camera'
p98
sg8
I220737137
ssS'0000000511'
p99
(dp100
g3
g4
sg5
I1366496773
sg6
S'camera'
p101
sg8
I240737861
ssS'0000000512'
p102
(dp103
g3
g4
sg5
I1366496773
sg6
S'camera'
p104
sg8
I260738582
ssS'0000000513'
p105
(dp106
g3
g4
sg5
I1366496773
sg6
S'camera'
p107
sg8
I280739323
ssS'0000000514'
p108
(dp109
g3
g4
sg5
I1366496773
sg6
S'camera'
p110
sg8
I300740061
ssS'0000000515'
p111
(dp112
g3
g4
sg5
I1366496773
sg6
S'camera'
p113
sg8
I320740792
ssS'0000000516'
p114
(dp115
g3
g4
sg5
I1366496773
sg6
S'camera'
p116
sg8
I340741567
ssS'0000000517'
p117
(dp118
g3
g4
sg5
I1366496773
sg6
S'camera'
p119
sg8
I360742308
ssS'0000000518'
p120
(dp121
g3
g4
sg5
I1366496773
sg6
S'camera'
p122
sg8
I380743035
ssS'0000000519'
p123
(dp124
g3
g4
sg5
I1366496773
sg6
S'camera'
p125
sg8
I400743761
ssS'0000001021'
p126
(dp127
g3
g4
sg5
I1366496783
sg6
S'camera'
p128
sg8
I441122855
ssS'0000001020'
p129
(dp130
g3
g4
sg5
I1366496783
sg6
S'camera'
p131
sg8
I421122100
ssS'0000000985'
p132
(dp133
g3
g4
sg5
I1366496782
sg6
S'camera'
p134
sg8
I721095354
ssS'0000001026'
p135
(dp136
g3
g4
sg5
I1366496783
sg6
S'camera'
p137
sg8
I541126607
ssS'0000001025'
p138
(dp139
g3
g4
sg5
I1366496783
sg6
S'camera'
p140
sg8
I521125876
ssS'0000001024'
p141
(dp142
g3
g4
sg5
I1366496783
sg6
S'camera'
p143
sg8
I501125157
ssS'0000000705'
p144
(dp145
g3
g4
sg5
I1366496777
sg6
S'camera'
p146
sg8
I120882178
ssS'0000001266'
p147
(dp148
g3
g4
sg5
I1366496788
sg6
S'camera'
p149
sg8
I341308391
ssS'0000000935'
p150
(dp151
g3
g4
sg5
I1366496781
sg6
S'camera'
p152
sg8
I721057789
ssS'0000000903'
p153
(dp154
g3
g4
sg5
I1366496781
sg6
S'camera'
p155
sg8
I81033709
ssS'0000001280'
p156
(dp157
g3
g4
sg5
I1366496788
sg6
S'camera'
p158
sg8
I621319005
ssS'0000001149'
p159
(dp160
g3
g4
sg5
I1366496786
sg6
S'camera'
p161
sg8
I1219326
ssS'0000001265'
p162
(dp163
g3
g4
sg5
I1366496788
sg6
S'camera'
p164
sg8
I321307638
ssS'0000001263'
p165
(dp166
g3
g4
sg5
I1366496788
sg6
S'camera'
p167
sg8
I281306150
ssS'0000001181'
p168
(dp169
g3
g4
sg5
I1366496786
sg6
S'camera'
p170
sg8
I641243766
ssS'0000000443'
p171
(dp172
g3
g4
sg5
I1366496771
sg6
S'camera'
p173
sg8
I880687899
ssS'0000001191'
p174
(dp175
g3
g4
sg5
I1366496786
sg6
S'camera'
p176
sg8
I841251371
ssS'0000000984'
p177
(dp178
g3
g4
sg5
I1366496782
sg6
S'camera'
p179
sg8
I701094583
ssS'0000001262'
p180
(dp181
g3
g4
sg5
I1366496788
sg6
S'camera'
p182
sg8
I261305381
ssS'0000000704'
p183
(dp184
g3
g4
sg5
I1366496777
sg6
S'camera'
p185
sg8
I100881401
ssS'0000000981'
p186
(dp187
g3
g4
sg5
I1366496782
sg6
S'camera'
p188
sg8
I641092340
ssS'0000000902'
p189
(dp190
g3
g4
sg5
I1366496781
sg6
S'camera'
p191
sg8
I61033004
ssS'0000000999'
p192
(dp193
g3
g4
sg5
I1366496783
sg6
S'camera'
p194
sg8
I1106119
ssS'0000000802'
p195
(dp196
g3
g4
sg5
I1366496779
sg6
S'camera'
p197
sg8
I60956323
ssS'0000001147'
p198
(dp199
g3
g4
sg5
I1366496785
sg6
S'camera'
p200
sg8
I961217790
ssS'0000000349'
p201
(dp202
g3
g4
sg5
I1366496770
sg6
S'camera'
p203
sg8
I616326
ssS'0000000348'
p204
(dp205
g3
g4
sg5
I1366496769
sg6
S'camera'
p206
sg8
I980615557
ssS'0000000803'
p207
(dp208
g3
g4
sg5
I1366496779
sg6
S'camera'
p209
sg8
I80957097
ssS'0000000345'
p210
(dp211
g3
g4
sg5
I1366496769
sg6
S'camera'
p212
sg8
I920613274
ssS'0000000344'
p213
(dp214
g3
g4
sg5
I1366496769
sg6
S'camera'
p215
sg8
I900612541
ssS'0000000347'
p216
(dp217
g3
g4
sg5
I1366496769
sg6
S'camera'
p218
sg8
I960614793
ssS'0000000346'
p219
(dp220
g3
g4
sg5
I1366496769
sg6
S'camera'
p221
sg8
I940614035
ssS'0000000341'
p222
(dp223
g3
g4
sg5
I1366496769
sg6
S'camera'
p224
sg8
I840610290
ssS'0000000340'
p225
(dp226
g3
g4
sg5
I1366496769
sg6
S'camera'
p227
sg8
I820609539
ssS'0000000343'
p228
(dp229
g3
g4
sg5
I1366496769
sg6
S'camera'
p230
sg8
I880611774
ssS'0000000342'
p231
(dp232
g3
g4
sg5
I1366496769
sg6
S'camera'
p233
sg8
I860611027
ssS'0000000464'
p234
(dp235
g3
g4
sg5
I1366496772
sg6
S'camera'
p236
sg8
I300703294
ssS'0000000465'
p237
(dp238
g3
g4
sg5
I1366496772
sg6
S'camera'
p239
sg8
I320704022
ssS'0000000466'
p240
(dp241
g3
g4
sg5
I1366496772
sg6
S'camera'
p242
sg8
I340704771
ssS'0000000467'
p243
(dp244
g3
g4
sg5
I1366496772
sg6
S'camera'
p245
sg8
I360705496
ssS'0000000460'
p246
(dp247
g3
g4
sg5
I1366496772
sg6
S'camera'
p248
sg8
I220700382
ssS'0000000461'
p249
(dp250
g3
g4
sg5
I1366496772
sg6
S'camera'
p251
sg8
I240701127
ssS'0000000462'
p252
(dp253
g3
g4
sg5
I1366496772
sg6
S'camera'
p254
sg8
I260701854
ssS'0000000463'
p255
(dp256
g3
g4
sg5
I1366496772
sg6
S'camera'
p257
sg8
I280702565
ssS'0000000587'
p258
(dp259
g3
g4
sg5
I1366496774
sg6
S'camera'
p260
sg8
I760793272
ssS'0000000586'
p261
(dp262
g3
g4
sg5
I1366496774
sg6
S'camera'
p263
sg8
I740792542
ssS'0000000585'
p264
(dp265
g3
g4
sg5
I1366496774
sg6
S'camera'
p266
sg8
I720791814
ssS'0000000584'
p267
(dp268
g3
g4
sg5
I1366496774
sg6
S'camera'
p269
sg8
I700791091
ssS'0000000468'
p270
(dp271
g3
g4
sg5
I1366496772
sg6
S'camera'
p272
sg8
I380706206
ssS'0000000448'
p273
(dp274
g3
g4
sg5
I1366496771
sg6
S'camera'
p275
sg8
I980691539
ssS'0000000581'
p276
(dp277
g3
g4
sg5
I1366496774
sg6
S'camera'
p278
sg8
I640788866
ssS'0000000580'
p279
(dp280
g3
g4
sg5
I1366496774
sg6
S'camera'
p281
sg8
I620788140
ssS'0000001183'
p282
(dp283
g3
g4
sg5
I1366496786
sg6
S'camera'
p284
sg8
I681245261
ssS'0000000997'
p285
(dp286
g3
g4
sg5
I1366496782
sg6
S'camera'
p287
sg8
I961104635
ssS'0000000804'
p288
(dp289
g3
g4
sg5
I1366496779
sg6
S'camera'
p290
sg8
I100957874
ssS'0000000805'
p291
(dp292
g3
g4
sg5
I1366496779
sg6
S'camera'
p293
sg8
I120958643
ssS'0000001292'
p294
(dp295
g3
g4
sg5
I1366496788
sg6
S'camera'
p296
sg8
I861328029
ssS'0000000991'
p297
(dp298
g3
g4
sg5
I1366496782
sg6
S'camera'
p299
sg8
I841099986
ssS'0000000860'
p300
(dp301
g3
g4
sg5
I1366496780
sg6
S'camera'
p302
sg8
I221000656
ssS'0000000473'
p303
(dp304
g3
g4
sg5
I1366496772
sg6
S'camera'
p305
sg8
I480709861
ssS'0000000862'
p306
(dp307
g3
g4
sg5
I1366496780
sg6
S'camera'
p308
sg8
I261002223
ssS'0000000863'
p309
(dp310
g3
g4
sg5
I1366496780
sg6
S'camera'
p311
sg8
I281002985
ssS'0000000864'
p312
(dp313
g3
g4
sg5
I1366496780
sg6
S'camera'
p314
sg8
I301003756
ssS'0000000865'
p315
(dp316
g3
g4
sg5
I1366496780
sg6
S'camera'
p317
sg8
I321004524
ssS'0000000801'
p318
(dp319
g3
g4
sg5
I1366496779
sg6
S'camera'
p320
sg8
I40955551
ssS'0000000472'
p321
(dp322
g3
g4
sg5
I1366496772
sg6
S'camera'
p323
sg8
I460709122
ssS'0000000868'
p324
(dp325
g3
g4
sg5
I1366496780
sg6
S'camera'
p326
sg8
I381007070
ssS'0000000869'
p327
(dp328
g3
g4
sg5
I1366496780
sg6
S'camera'
p329
sg8
I401007852
ssS'0000000901'
p330
(dp331
g3
g4
sg5
I1366496781
sg6
S'camera'
p332
sg8
I41032214
ssS'0000000900'
p333
(dp334
g3
g4
sg5
I1366496781
sg6
S'camera'
p335
sg8
I21031452
ssS'0000000907'
p336
(dp337
g3
g4
sg5
I1366496781
sg6
S'camera'
p338
sg8
I161036701
ssS'0000000808'
p339
(dp340
g3
g4
sg5
I1366496779
sg6
S'camera'
p341
sg8
I180960942
ssS'0000000905'
p342
(dp343
g3
g4
sg5
I1366496781
sg6
S'camera'
p344
sg8
I121035197
ssS'0000000904'
p345
(dp346
g3
g4
sg5
I1366496781
sg6
S'camera'
p347
sg8
I101034451
ssS'0000000648'
p348
(dp349
g3
g4
sg5
I1366496775
sg6
S'camera'
p350
sg8
I980838284
ssS'0000000129'
p351
(dp352
g3
g4
sg5
I1366496765
sg6
S'camera'
p353
sg8
I600455445
ssS'0000000809'
p354
(dp355
g3
g4
sg5
I1366496779
sg6
S'camera'
p356
sg8
I200961695
ssS'0000001039'
p357
(dp358
g3
g4
sg5
I1366496783
sg6
S'camera'
p359
sg8
I801136104
ssS'0000000128'
p360
(dp361
g3
g4
sg5
I1366496765
sg6
S'camera'
p362
sg8
I580454720
ssS'0000000640'
p363
(dp364
g3
g4
sg5
I1366496775
sg6
S'camera'
p365
sg8
I820832199
ssS'0000000641'
p366
(dp367
g3
g4
sg5
I1366496775
sg6
S'camera'
p368
sg8
I840832953
ssS'0000000642'
p369
(dp370
g3
g4
sg5
I1366496775
sg6
S'camera'
p371
sg8
I860833730
ssS'0000000643'
p372
(dp373
g3
g4
sg5
I1366496775
sg6
S'camera'
p374
sg8
I880834488
ssS'0000000644'
p375
(dp376
g3
g4
sg5
I1366496775
sg6
S'camera'
p377
sg8
I900835241
ssS'0000000645'
p378
(dp379
g3
g4
sg5
I1366496775
sg6
S'camera'
p380
sg8
I920835983
ssS'0000000646'
p381
(dp382
g3
g4
sg5
I1366496775
sg6
S'camera'
p383
sg8
I940836767
ssS'0000000647'
p384
(dp385
g3
g4
sg5
I1366496775
sg6
S'camera'
p386
sg8
I960837536
ssS'0000000763'
p387
(dp388
g3
g4
sg5
I1366496778
sg6
S'camera'
p389
sg8
I280926618
ssS'0000000762'
p390
(dp391
g3
g4
sg5
I1366496778
sg6
S'camera'
p392
sg8
I260925845
ssS'0000000761'
p393
(dp394
g3
g4
sg5
I1366496778
sg6
S'camera'
p395
sg8
I240925057
ssS'0000000760'
p396
(dp397
g3
g4
sg5
I1366496778
sg6
S'camera'
p398
sg8
I220924278
ssS'0000000767'
p399
(dp400
g3
g4
sg5
I1366496778
sg6
S'camera'
p401
sg8
I360929645
ssS'0000000766'
p402
(dp403
g3
g4
sg5
I1366496778
sg6
S'camera'
p404
sg8
I340928905
ssS'0000000765'
p405
(dp406
g3
g4
sg5
I1366496778
sg6
S'camera'
p407
sg8
I320928124
ssS'0000000531'
p408
(dp409
g3
g4
sg5
I1366496773
sg6
S'camera'
p410
sg8
I640752509
ssS'0000000882'
p411
(dp412
g3
g4
sg5
I1366496780
sg6
S'camera'
p413
sg8
I661017748
ssS'0000000883'
p414
(dp415
g3
g4
sg5
I1366496780
sg6
S'camera'
p416
sg8
I681018520
ssS'0000000769'
p417
(dp418
g3
g4
sg5
I1366496778
sg6
S'camera'
p419
sg8
I400931129
ssS'0000000768'
p420
(dp421
g3
g4
sg5
I1366496778
sg6
S'camera'
p422
sg8
I380930395
ssS'0000000886'
p423
(dp424
g3
g4
sg5
I1366496780
sg6
S'camera'
p425
sg8
I741020759
ssS'0000000887'
p426
(dp427
g3
g4
sg5
I1366496780
sg6
S'camera'
p428
sg8
I761021521
ssS'0000000884'
p429
(dp430
g3
g4
sg5
I1366496780
sg6
S'camera'
p431
sg8
I701019266
ssS'0000000885'
p432
(dp433
g3
g4
sg5
I1366496780
sg6
S'camera'
p434
sg8
I721020032
ssS'0000001203'
p435
(dp436
g3
g4
sg5
I1366496787
sg6
S'camera'
p437
sg8
I81260537
ssS'0000001202'
p438
(dp439
g3
g4
sg5
I1366496787
sg6
S'camera'
p440
sg8
I61259774
ssS'0000000988'
p441
(dp442
g3
g4
sg5
I1366496782
sg6
S'camera'
p443
sg8
I781097660
ssS'0000001169'
p444
(dp445
g3
g4
sg5
I1366496786
sg6
S'camera'
p446
sg8
I401234615
ssS'0000001207'
p447
(dp448
g3
g4
sg5
I1366496787
sg6
S'camera'
p449
sg8
I161263569
ssS'0000001206'
p450
(dp451
g3
g4
sg5
I1366496787
sg6
S'camera'
p452
sg8
I141262791
ssS'0000001205'
p453
(dp454
g3
g4
sg5
I1366496787
sg6
S'camera'
p455
sg8
I121262052
ssS'0000001204'
p456
(dp457
g3
g4
sg5
I1366496787
sg6
S'camera'
p458
sg8
I101261307
ssS'0000001162'
p459
(dp460
g3
g4
sg5
I1366496786
sg6
S'camera'
p461
sg8
I261229315
ssS'0000001163'
p462
(dp463
g3
g4
sg5
I1366496786
sg6
S'camera'
p464
sg8
I281230067
ssS'0000001160'
p465
(dp466
g3
g4
sg5
I1366496786
sg6
S'camera'
p467
sg8
I221227774
ssS'0000001132'
p468
(dp469
g3
g4
sg5
I1366496785
sg6
S'camera'
p470
sg8
I661206424
ssS'0000001166'
p471
(dp472
g3
g4
sg5
I1366496786
sg6
S'camera'
p473
sg8
I341232358
ssS'0000001167'
p474
(dp475
g3
g4
sg5
I1366496786
sg6
S'camera'
p476
sg8
I361233110
ssS'0000001164'
p477
(dp478
g3
g4
sg5
I1366496786
sg6
S'camera'
p479
sg8
I301230831
ssS'0000001165'
p480
(dp481
g3
g4
sg5
I1366496786
sg6
S'camera'
p482
sg8
I321231607
ssS'0000000807'
p483
(dp484
g3
g4
sg5
I1366496779
sg6
S'camera'
p485
sg8
I160960168
ssS'0000001035'
p486
(dp487
g3
g4
sg5
I1366496783
sg6
S'camera'
p488
sg8
I721133150
ssS'0000000932'
p489
(dp490
g3
g4
sg5
I1366496781
sg6
S'camera'
p491
sg8
I661055527
ssS'0000001029'
p492
(dp493
g3
g4
sg5
I1366496783
sg6
S'camera'
p494
sg8
I601128770
ssS'0000000933'
p495
(dp496
g3
g4
sg5
I1366496781
sg6
S'camera'
p497
sg8
I681056285
ssS'0000001261'
p498
(dp499
g3
g4
sg5
I1366496788
sg6
S'camera'
p500
sg8
I241304647
ssS'0000000549'
p501
(dp502
g3
g4
sg5
I1366496774
sg6
S'camera'
p503
sg8
I765650
ssS'0000000924'
p504
(dp505
g3
g4
sg5
I1366496781
sg6
S'camera'
p506
sg8
I501049525
ssS'0000001138'
p507
(dp508
g3
g4
sg5
I1366496785
sg6
S'camera'
p509
sg8
I781210995
ssS'0000000082'
p510
(dp511
g3
g4
sg5
I1366496764
sg6
S'camera'
p512
sg8
I660421297
ssS'0000000083'
p513
(dp514
g3
g4
sg5
I1366496764
sg6
S'camera'
p515
sg8
I680422017
ssS'0000000080'
p516
(dp517
g3
g4
sg5
I1366496764
sg6
S'camera'
p518
sg8
I620419791
ssS'0000000081'
p519
(dp520
g3
g4
sg5
I1366496764
sg6
S'camera'
p521
sg8
I640420561
ssS'0000000086'
p522
(dp523
g3
g4
sg5
I1366496764
sg6
S'camera'
p524
sg8
I740424230
ssS'0000000127'
p525
(dp526
g3
g4
sg5
I1366496765
sg6
S'camera'
p527
sg8
I560453984
ssS'0000000084'
p528
(dp529
g3
g4
sg5
I1366496764
sg6
S'camera'
p530
sg8
I700422745
ssS'0000000085'
p531
(dp532
g3
g4
sg5
I1366496764
sg6
S'camera'
p533
sg8
I720423483
ssS'0000000936'
p534
(dp535
g3
g4
sg5
I1366496781
sg6
S'camera'
p536
sg8
I741058522
ssS'0000000088'
p537
(dp538
g3
g4
sg5
I1366496764
sg6
S'camera'
p539
sg8
I780425687
ssS'0000000126'
p540
(dp541
g3
g4
sg5
I1366496765
sg6
S'camera'
p542
sg8
I540453262
ssS'0000001200'
p543
(dp544
g3
g4
sg5
I1366496787
sg6
S'camera'
p545
sg8
I21258234
ssS'0000000937'
p546
(dp547
g3
g4
sg5
I1366496781
sg6
S'camera'
p548
sg8
I761059283
ssS'0000000165'
p549
(dp550
g3
g4
sg5
I1366496766
sg6
S'camera'
p551
sg8
I320481626
ssS'0000000164'
p552
(dp553
g3
g4
sg5
I1366496766
sg6
S'camera'
p554
sg8
I300480896
ssS'0000000167'
p555
(dp556
g3
g4
sg5
I1366496766
sg6
S'camera'
p557
sg8
I360483096
ssS'0000000166'
p558
(dp559
g3
g4
sg5
I1366496766
sg6
S'camera'
p560
sg8
I340482365
ssS'0000000248'
p561
(dp562
g3
g4
sg5
I1366496767
sg6
S'camera'
p563
sg8
I980542080
ssS'0000000249'
p564
(dp565
g3
g4
sg5
I1366496768
sg6
S'camera'
p566
sg8
I542801
ssS'0000000163'
p567
(dp568
g3
g4
sg5
I1366496766
sg6
S'camera'
p569
sg8
I280480190
ssS'0000000162'
p570
(dp571
g3
g4
sg5
I1366496766
sg6
S'camera'
p572
sg8
I260479464
ssS'0000000244'
p573
(dp574
g3
g4
sg5
I1366496767
sg6
S'camera'
p575
sg8
I900539173
ssS'0000000245'
p576
(dp577
g3
g4
sg5
I1366496767
sg6
S'camera'
p578
sg8
I920539891
ssS'0000000246'
p579
(dp580
g3
g4
sg5
I1366496767
sg6
S'camera'
p581
sg8
I940540623
ssS'0000000247'
p582
(dp583
g3
g4
sg5
I1366496767
sg6
S'camera'
p584
sg8
I960541357
ssS'0000000169'
p585
(dp586
g3
g4
sg5
I1366496766
sg6
S'camera'
p587
sg8
I400484548
ssS'0000000168'
p588
(dp589
g3
g4
sg5
I1366496766
sg6
S'camera'
p590
sg8
I380483827
ssS'0000000242'
p591
(dp592
g3
g4
sg5
I1366496767
sg6
S'camera'
p593
sg8
I860537722
ssS'0000000243'
p594
(dp595
g3
g4
sg5
I1366496767
sg6
S'camera'
p596
sg8
I880538449
ssS'0000000543'
p597
(dp598
g3
g4
sg5
I1366496773
sg6
S'camera'
p599
sg8
I880761285
ssS'0000000685'
p600
(dp601
g3
g4
sg5
I1366496776
sg6
S'camera'
p602
sg8
I720866695
ssS'0000001028'
p603
(dp604
g3
g4
sg5
I1366496783
sg6
S'camera'
p605
sg8
I581128060
ssS'0000000542'
p606
(dp607
g3
g4
sg5
I1366496773
sg6
S'camera'
p608
sg8
I860760556
ssS'0000001188'
p609
(dp610
g3
g4
sg5
I1366496786
sg6
S'camera'
p611
sg8
I781249052
ssS'0000000938'
p612
(dp613
g3
g4
sg5
I1366496781
sg6
S'camera'
p614
sg8
I781060018
ssS'0000001067'
p615
(dp616
g3
g4
sg5
I1366496784
sg6
S'camera'
p617
sg8
I361156913
ssS'0000000176'
p618
(dp619
g3
g4
sg5
I1366496766
sg6
S'camera'
p620
sg8
I540489596
ssS'0000001065'
p621
(dp622
g3
g4
sg5
I1366496784
sg6
S'camera'
p623
sg8
I321155425
ssS'0000000939'
p624
(dp625
g3
g4
sg5
I1366496781
sg6
S'camera'
p626
sg8
I801060773
ssS'0000001063'
p627
(dp628
g3
g4
sg5
I1366496784
sg6
S'camera'
p629
sg8
I281153875
ssS'0000000848'
p630
(dp631
g3
g4
sg5
I1366496779
sg6
S'camera'
p632
sg8
I980991416
ssS'0000001061'
p633
(dp634
g3
g4
sg5
I1366496784
sg6
S'camera'
p635
sg8
I241152337
ssS'0000000177'
p636
(dp637
g3
g4
sg5
I1366496766
sg6
S'camera'
p638
sg8
I560490322
ssS'0000000976'
p639
(dp640
g3
g4
sg5
I1366496782
sg6
S'camera'
p641
sg8
I541088585
ssS'0000001069'
p642
(dp643
g3
g4
sg5
I1366496784
sg6
S'camera'
p644
sg8
I401158393
ssS'0000001068'
p645
(dp646
g3
g4
sg5
I1366496784
sg6
S'camera'
p647
sg8
I381157644
ssS'0000001189'
p648
(dp649
g3
g4
sg5
I1366496786
sg6
S'camera'
p650
sg8
I801249820
ssS'0000000019'
p651
(dp652
g3
g4
sg5
I1366496763
sg6
S'camera'
p653
sg8
I400375291
ssS'0000000018'
p654
(dp655
g3
g4
sg5
I1366496763
sg6
S'camera'
p656
sg8
I380374523
ssS'0000000845'
p657
(dp658
g3
g4
sg5
I1366496779
sg6
S'camera'
p659
sg8
I920989114
ssS'0000001013'
p660
(dp661
g3
g4
sg5
I1366496783
sg6
S'camera'
p662
sg8
I281116727
ssS'0000000011'
p663
(dp664
g3
g4
sg5
I1366496763
sg6
S'camera'
p665
sg8
I240369024
ssS'0000000010'
p666
(dp667
g3
g4
sg5
I1366496763
sg6
S'camera'
p668
sg8
I220368255
ssS'0000000013'
p669
(dp670
g3
g4
sg5
I1366496763
sg6
S'camera'
p671
sg8
I280370654
ssS'0000000012'
p672
(dp673
g3
g4
sg5
I1366496763
sg6
S'camera'
p674
sg8
I260369874
ssS'0000000015'
p675
(dp676
g3
g4
sg5
I1366496763
sg6
S'camera'
p677
sg8
I320372209
ssS'0000000014'
p678
(dp679
g3
g4
sg5
I1366496763
sg6
S'camera'
p680
sg8
I300371447
ssS'0000000017'
p681
(dp682
g3
g4
sg5
I1366496763
sg6
S'camera'
p683
sg8
I360373747
ssS'0000000016'
p684
(dp685
g3
g4
sg5
I1366496763
sg6
S'camera'
p686
sg8
I340372973
ssS'0000000386'
p687
(dp688
g3
g4
sg5
I1366496770
sg6
S'camera'
p689
sg8
I740644440
ssS'0000001290'
p690
(dp691
g3
g4
sg5
I1366496788
sg6
S'camera'
p692
sg8
I821326501
ssS'0000001127'
p693
(dp694
g3
g4
sg5
I1366496785
sg6
S'camera'
p695
sg8
I561202617
ssS'0000001180'
p696
(dp697
g3
g4
sg5
I1366496786
sg6
S'camera'
p698
sg8
I621242998
ssS'0000001017'
p699
(dp700
g3
g4
sg5
I1366496783
sg6
S'camera'
p701
sg8
I361119827
ssS'0000000420'
p702
(dp703
g3
g4
sg5
I1366496771
sg6
S'camera'
p704
sg8
I420670408
ssS'0000000421'
p705
(dp706
g3
g4
sg5
I1366496771
sg6
S'camera'
p707
sg8
I440671177
ssS'0000000422'
p708
(dp709
g3
g4
sg5
I1366496771
sg6
S'camera'
p710
sg8
I460672113
ssS'0000000423'
p711
(dp712
g3
g4
sg5
I1366496771
sg6
S'camera'
p713
sg8
I480672932
ssS'0000000424'
p714
(dp715
g3
g4
sg5
I1366496771
sg6
S'camera'
p716
sg8
I500673689
ssS'0000000425'
p717
(dp718
g3
g4
sg5
I1366496771
sg6
S'camera'
p719
sg8
I520674465
ssS'0000000426'
p720
(dp721
g3
g4
sg5
I1366496771
sg6
S'camera'
p722
sg8
I540675201
ssS'0000000427'
p723
(dp724
g3
g4
sg5
I1366496771
sg6
S'camera'
p725
sg8
I560676033
ssS'0000000428'
p726
(dp727
g3
g4
sg5
I1366496771
sg6
S'camera'
p728
sg8
I580676762
ssS'0000000429'
p729
(dp730
g3
g4
sg5
I1366496771
sg6
S'camera'
p731
sg8
I600677481
ssS'0000000541'
p732
(dp733
g3
g4
sg5
I1366496773
sg6
S'camera'
p734
sg8
I840759819
ssS'0000000540'
p735
(dp736
g3
g4
sg5
I1366496773
sg6
S'camera'
p737
sg8
I820759097
ssS'0000000547'
p738
(dp739
g3
g4
sg5
I1366496773
sg6
S'camera'
p740
sg8
I960764196
ssS'0000000546'
p741
(dp742
g3
g4
sg5
I1366496773
sg6
S'camera'
p743
sg8
I940763466
ssS'0000000545'
p744
(dp745
g3
g4
sg5
I1366496773
sg6
S'camera'
p746
sg8
I920762738
ssS'0000000544'
p747
(dp748
g3
g4
sg5
I1366496773
sg6
S'camera'
p749
sg8
I900762008
ssS'0000001012'
p750
(dp751
g3
g4
sg5
I1366496783
sg6
S'camera'
p752
sg8
I261116018
ssS'0000000631'
p753
(dp754
g3
g4
sg5
I1366496775
sg6
S'camera'
p755
sg8
I640825364
ssS'0000001010'
p756
(dp757
g3
g4
sg5
I1366496783
sg6
S'camera'
p758
sg8
I221114482
ssS'0000001011'
p759
(dp760
g3
g4
sg5
I1366496783
sg6
S'camera'
p761
sg8
I241115260
ssS'0000001016'
p762
(dp763
g3
g4
sg5
I1366496783
sg6
S'camera'
p764
sg8
I341119045
ssS'0000000277'
p765
(dp766
g3
g4
sg5
I1366496768
sg6
S'camera'
p767
sg8
I560563247
ssS'0000001014'
p768
(dp769
g3
g4
sg5
I1366496783
sg6
S'camera'
p770
sg8
I301117506
ssS'0000000630'
p771
(dp772
g3
g4
sg5
I1366496775
sg6
S'camera'
p773
sg8
I620824637
ssS'0000001184'
p774
(dp775
g3
g4
sg5
I1366496786
sg6
S'camera'
p776
sg8
I701246009
ssS'0000001018'
p777
(dp778
g3
g4
sg5
I1366496783
sg6
S'camera'
p779
sg8
I381120600
ssS'0000000179'
p780
(dp781
g3
g4
sg5
I1366496766
sg6
S'camera'
p782
sg8
I600491767
ssS'0000000633'
p783
(dp784
g3
g4
sg5
I1366496775
sg6
S'camera'
p785
sg8
I680826863
ssS'0000001185'
p786
(dp787
g3
g4
sg5
I1366496786
sg6
S'camera'
p788
sg8
I721246763
ssS'0000000632'
p789
(dp790
g3
g4
sg5
I1366496775
sg6
S'camera'
p791
sg8
I660826101
ssS'0000001186'
p792
(dp793
g3
g4
sg5
I1366496786
sg6
S'camera'
p794
sg8
I741247508
ssS'0000001250'
p795
(dp796
g3
g4
sg5
I1366496788
sg6
S'camera'
p797
sg8
I21296268
ssS'0000000635'
p798
(dp799
g3
g4
sg5
I1366496775
sg6
S'camera'
p800
sg8
I720828390
ssS'0000001187'
p801
(dp802
g3
g4
sg5
I1366496786
sg6
S'camera'
p803
sg8
I761248276
ssS'0000000634'
p804
(dp805
g3
g4
sg5
I1366496775
sg6
S'camera'
p806
sg8
I700827620
ssS'0000000947'
p807
(dp808
g3
g4
sg5
I1366496781
sg6
S'camera'
p809
sg8
I961066806
ssS'0000000946'
p810
(dp811
g3
g4
sg5
I1366496781
sg6
S'camera'
p812
sg8
I941066029
ssS'0000000945'
p813
(dp814
g3
g4
sg5
I1366496781
sg6
S'camera'
p815
sg8
I921065279
ssS'0000000944'
p816
(dp817
g3
g4
sg5
I1366496781
sg6
S'camera'
p818
sg8
I901064492
ssS'0000000943'
p819
(dp820
g3
g4
sg5
I1366496781
sg6
S'camera'
p821
sg8
I881063749
ssS'0000000108'
p822
(dp823
g3
g4
sg5
I1366496765
sg6
S'camera'
p824
sg8
I180440171
ssS'0000000941'
p825
(dp826
g3
g4
sg5
I1366496781
sg6
S'camera'
p827
sg8
I841062286
ssS'0000000940'
p828
(dp829
g3
g4
sg5
I1366496781
sg6
S'camera'
p830
sg8
I821061540
ssS'0000001023'
p831
(dp832
g3
g4
sg5
I1366496783
sg6
S'camera'
p833
sg8
I481124392
ssS'0000000636'
p834
(dp835
g3
g4
sg5
I1366496775
sg6
S'camera'
p836
sg8
I740829164
ssS'0000000949'
p837
(dp838
g3
g4
sg5
I1366496782
sg6
S'camera'
p839
sg8
I1068261
ssS'0000000948'
p840
(dp841
g3
g4
sg5
I1366496781
sg6
S'camera'
p842
sg8
I981067553
ssS'0000000684'
p843
(dp844
g3
g4
sg5
I1366496776
sg6
S'camera'
p845
sg8
I700865926
ssS'0000000389'
p846
(dp847
g3
g4
sg5
I1366496770
sg6
S'camera'
p848
sg8
I800646699
ssS'0000000686'
p849
(dp850
g3
g4
sg5
I1366496776
sg6
S'camera'
p851
sg8
I740867520
ssS'0000000687'
p852
(dp853
g3
g4
sg5
I1366496776
sg6
S'camera'
p854
sg8
I760868260
ssS'0000000680'
p855
(dp856
g3
g4
sg5
I1366496776
sg6
S'camera'
p857
sg8
I620862894
ssS'0000000681'
p858
(dp859
g3
g4
sg5
I1366496776
sg6
S'camera'
p860
sg8
I640863676
ssS'0000000682'
p861
(dp862
g3
g4
sg5
I1366496776
sg6
S'camera'
p863
sg8
I660864452
ssS'0000000388'
p864
(dp865
g3
g4
sg5
I1366496770
sg6
S'camera'
p866
sg8
I780645953
ssS'0000000727'
p867
(dp868
g3
g4
sg5
I1366496777
sg6
S'camera'
p869
sg8
I560898974
ssS'0000000726'
p870
(dp871
g3
g4
sg5
I1366496777
sg6
S'camera'
p872
sg8
I540898201
ssS'0000000725'
p873
(dp874
g3
g4
sg5
I1366496777
sg6
S'camera'
p875
sg8
I520897463
ssS'0000000724'
p876
(dp877
g3
g4
sg5
I1366496777
sg6
S'camera'
p878
sg8
I500896706
ssS'0000000688'
p879
(dp880
g3
g4
sg5
I1366496776
sg6
S'camera'
p881
sg8
I780869024
ssS'0000000689'
p882
(dp883
g3
g4
sg5
I1366496776
sg6
S'camera'
p884
sg8
I800869783
ssS'0000000721'
p885
(dp886
g3
g4
sg5
I1366496777
sg6
S'camera'
p887
sg8
I440894396
ssS'0000000720'
p888
(dp889
g3
g4
sg5
I1366496777
sg6
S'camera'
p890
sg8
I420893667
ssS'0000000334'
p891
(dp892
g3
g4
sg5
I1366496769
sg6
S'camera'
p893
sg8
I700604999
ssS'0000000335'
p894
(dp895
g3
g4
sg5
I1366496769
sg6
S'camera'
p896
sg8
I720605761
ssS'0000000336'
p897
(dp898
g3
g4
sg5
I1366496769
sg6
S'camera'
p899
sg8
I740606551
ssS'0000000337'
p900
(dp901
g3
g4
sg5
I1366496769
sg6
S'camera'
p902
sg8
I760607273
ssS'0000000330'
p903
(dp904
g3
g4
sg5
I1366496769
sg6
S'camera'
p905
sg8
I620601948
ssS'0000000331'
p906
(dp907
g3
g4
sg5
I1366496769
sg6
S'camera'
p908
sg8
I640602678
ssS'0000000332'
p909
(dp910
g3
g4
sg5
I1366496769
sg6
S'camera'
p911
sg8
I660603434
ssS'0000000333'
p912
(dp913
g3
g4
sg5
I1366496769
sg6
S'camera'
p914
sg8
I680604219
ssS'0000001247'
p915
(dp916
g3
g4
sg5
I1366496787
sg6
S'camera'
p917
sg8
I961293963
ssS'0000001246'
p918
(dp919
g3
g4
sg5
I1366496787
sg6
S'camera'
p920
sg8
I941293236
ssS'0000001245'
p921
(dp922
g3
g4
sg5
I1366496787
sg6
S'camera'
p923
sg8
I921292476
ssS'0000001244'
p924
(dp925
g3
g4
sg5
I1366496787
sg6
S'camera'
p926
sg8
I901291728
ssS'0000000338'
p927
(dp928
g3
g4
sg5
I1366496769
sg6
S'camera'
p929
sg8
I780608030
ssS'0000000339'
p930
(dp931
g3
g4
sg5
I1366496769
sg6
S'camera'
p932
sg8
I800608774
ssS'0000001241'
p933
(dp934
g3
g4
sg5
I1366496787
sg6
S'camera'
p935
sg8
I841289415
ssS'0000001240'
p936
(dp937
g3
g4
sg5
I1366496787
sg6
S'camera'
p938
sg8
I821288650
ssS'0000001089'
p939
(dp940
g3
g4
sg5
I1366496784
sg6
S'camera'
p941
sg8
I801173674
ssS'0000000666'
p942
(dp943
g3
g4
sg5
I1366496776
sg6
S'camera'
p944
sg8
I340852143
ssS'0000001124'
p945
(dp946
g3
g4
sg5
I1366496785
sg6
S'camera'
p947
sg8
I501200326
ssS'0000000975'
p948
(dp949
g3
g4
sg5
I1366496782
sg6
S'camera'
p950
sg8
I521087834
ssS'0000001122'
p951
(dp952
g3
g4
sg5
I1366496785
sg6
S'camera'
p953
sg8
I461198804
ssS'0000001123'
p954
(dp955
g3
g4
sg5
I1366496785
sg6
S'camera'
p956
sg8
I481199559
ssS'0000001120'
p957
(dp958
g3
g4
sg5
I1366496785
sg6
S'camera'
p959
sg8
I421197286
ssS'0000000667'
p960
(dp961
g3
g4
sg5
I1366496776
sg6
S'camera'
p962
sg8
I360852899
ssS'0000001081'
p963
(dp964
g3
g4
sg5
I1366496784
sg6
S'camera'
p965
sg8
I641167533
ssS'0000000972'
p966
(dp967
g3
g4
sg5
I1366496782
sg6
S'camera'
p968
sg8
I461085631
ssS'0000001083'
p969
(dp970
g3
g4
sg5
I1366496784
sg6
S'camera'
p971
sg8
I681169069
ssS'0000001082'
p972
(dp973
g3
g4
sg5
I1366496784
sg6
S'camera'
p974
sg8
I661168300
ssS'0000000358'
p975
(dp976
g3
g4
sg5
I1366496770
sg6
S'camera'
p977
sg8
I180623213
ssS'0000000664'
p978
(dp979
g3
g4
sg5
I1366496776
sg6
S'camera'
p980
sg8
I300850607
ssS'0000001087'
p981
(dp982
g3
g4
sg5
I1366496784
sg6
S'camera'
p983
sg8
I761172148
ssS'0000001086'
p984
(dp985
g3
g4
sg5
I1366496784
sg6
S'camera'
p986
sg8
I741171384
ssS'0000000839'
p987
(dp988
g3
g4
sg5
I1366496779
sg6
S'camera'
p989
sg8
I800984575
ssS'0000000665'
p990
(dp991
g3
g4
sg5
I1366496776
sg6
S'camera'
p992
sg8
I320851372
ssS'0000000970'
p993
(dp994
g3
g4
sg5
I1366496782
sg6
S'camera'
p995
sg8
I421084168
ssS'0000000833'
p996
(dp997
g3
g4
sg5
I1366496779
sg6
S'camera'
p998
sg8
I680979969
ssS'0000000662'
p999
(dp1000
g3
g4
sg5
I1366496776
sg6
S'camera'
p1001
sg8
I260849065
ssS'0000000831'
p1002
(dp1003
g3
g4
sg5
I1366496779
sg6
S'camera'
p1004
sg8
I640978447
ssS'0000000830'
p1005
(dp1006
g3
g4
sg5
I1366496779
sg6
S'camera'
p1007
sg8
I620977671
ssS'0000000837'
p1008
(dp1009
g3
g4
sg5
I1366496779
sg6
S'camera'
p1010
sg8
I760983034
ssS'0000000836'
p1011
(dp1012
g3
g4
sg5
I1366496779
sg6
S'camera'
p1013
sg8
I740982269
ssS'0000000835'
p1014
(dp1015
g3
g4
sg5
I1366496779
sg6
S'camera'
p1016
sg8
I720981490
ssS'0000000663'
p1017
(dp1018
g3
g4
sg5
I1366496776
sg6
S'camera'
p1019
sg8
I280849832
ssS'0000000382'
p1020
(dp1021
g3
g4
sg5
I1366496770
sg6
S'camera'
p1022
sg8
I660641445
ssS'0000000192'
p1023
(dp1024
g3
g4
sg5
I1366496766
sg6
S'camera'
p1025
sg8
I860501214
ssS'0000001295'
p1026
(dp1027
g3
g4
sg5
I1366496788
sg6
S'camera'
p1028
sg8
I921330263
ssS'0000000749'
p1029
(dp1030
g3
g4
sg5
I1366496778
sg6
S'camera'
p1031
sg8
I915889
ssS'0000000193'
p1032
(dp1033
g3
g4
sg5
I1366496766
sg6
S'camera'
p1034
sg8
I880501950
ssS'0000000208'
p1035
(dp1036
g3
g4
sg5
I1366496767
sg6
S'camera'
p1037
sg8
I180512900
ssS'0000000209'
p1038
(dp1039
g3
g4
sg5
I1366496767
sg6
S'camera'
p1040
sg8
I200513620
ssS'0000000611'
p1041
(dp1042
g3
g4
sg5
I1366496775
sg6
S'camera'
p1043
sg8
I240810756
ssS'0000000610'
p1044
(dp1045
g3
g4
sg5
I1366496775
sg6
S'camera'
p1046
sg8
I220810017
ssS'0000000617'
p1047
(dp1048
g3
g4
sg5
I1366496775
sg6
S'camera'
p1049
sg8
I360815182
ssS'0000000387'
p1050
(dp1051
g3
g4
sg5
I1366496770
sg6
S'camera'
p1052
sg8
I760645201
ssS'0000000615'
p1053
(dp1054
g3
g4
sg5
I1366496775
sg6
S'camera'
p1055
sg8
I320813719
ssS'0000000614'
p1056
(dp1057
g3
g4
sg5
I1366496775
sg6
S'camera'
p1058
sg8
I300812986
ssS'0000000200'
p1059
(dp1060
g3
g4
sg5
I1366496767
sg6
S'camera'
p1061
sg8
I20507017
ssS'0000000201'
p1062
(dp1063
g3
g4
sg5
I1366496767
sg6
S'camera'
p1064
sg8
I40507804
ssS'0000000202'
p1065
(dp1066
g3
g4
sg5
I1366496767
sg6
S'camera'
p1067
sg8
I60508537
ssS'0000000203'
p1068
(dp1069
g3
g4
sg5
I1366496767
sg6
S'camera'
p1070
sg8
I80509260
ssS'0000000204'
p1071
(dp1072
g3
g4
sg5
I1366496767
sg6
S'camera'
p1073
sg8
I100509989
ssS'0000000205'
p1074
(dp1075
g3
g4
sg5
I1366496767
sg6
S'camera'
p1076
sg8
I120510711
ssS'0000000206'
p1077
(dp1078
g3
g4
sg5
I1366496767
sg6
S'camera'
p1079
sg8
I140511452
ssS'0000000207'
p1080
(dp1081
g3
g4
sg5
I1366496767
sg6
S'camera'
p1082
sg8
I160512177
ssS'0000001238'
p1083
(dp1084
g3
g4
sg5
I1366496787
sg6
S'camera'
p1085
sg8
I781287131
ssS'0000000742'
p1086
(dp1087
g3
g4
sg5
I1366496777
sg6
S'camera'
p1088
sg8
I860910385
ssS'0000000748'
p1089
(dp1090
g3
g4
sg5
I1366496777
sg6
S'camera'
p1091
sg8
I980915122
ssS'0000001232'
p1092
(dp1093
g3
g4
sg5
I1366496787
sg6
S'camera'
p1094
sg8
I661282569
ssS'0000000213'
p1095
(dp1096
g3
g4
sg5
I1366496767
sg6
S'camera'
p1097
sg8
I280516539
ssS'0000001230'
p1098
(dp1099
g3
g4
sg5
I1366496787
sg6
S'camera'
p1100
sg8
I621281041
ssS'0000001015'
p1101
(dp1102
g3
g4
sg5
I1366496783
sg6
S'camera'
p1103
sg8
I321118273
ssS'0000001236'
p1104
(dp1105
g3
g4
sg5
I1366496787
sg6
S'camera'
p1106
sg8
I741285621
ssS'0000001237'
p1107
(dp1108
g3
g4
sg5
I1366496787
sg6
S'camera'
p1109
sg8
I761286368
ssS'0000001234'
p1110
(dp1111
g3
g4
sg5
I1366496787
sg6
S'camera'
p1112
sg8
I701284092
ssS'0000000212'
p1113
(dp1114
g3
g4
sg5
I1366496767
sg6
S'camera'
p1115
sg8
I260515817
ssS'0000001027'
p1116
(dp1117
g3
g4
sg5
I1366496783
sg6
S'camera'
p1118
sg8
I561127336
ssS'0000000668'
p1119
(dp1120
g3
g4
sg5
I1366496776
sg6
S'camera'
p1121
sg8
I380853654
ssS'0000001079'
p1122
(dp1123
g3
g4
sg5
I1366496784
sg6
S'camera'
p1124
sg8
I601166036
ssS'0000000986'
p1125
(dp1126
g3
g4
sg5
I1366496782
sg6
S'camera'
p1127
sg8
I741096115
ssS'0000000669'
p1128
(dp1129
g3
g4
sg5
I1366496776
sg6
S'camera'
p1130
sg8
I400854414
ssS'0000000660'
p1131
(dp1132
g3
g4
sg5
I1366496776
sg6
S'camera'
p1133
sg8
I220847507
ssS'0000000942'
p1134
(dp1135
g3
g4
sg5
I1366496781
sg6
S'camera'
p1136
sg8
I861063010
ssS'0000001136'
p1137
(dp1138
g3
g4
sg5
I1366496785
sg6
S'camera'
p1139
sg8
I741209470
ssS'0000000707'
p1140
(dp1141
g3
g4
sg5
I1366496777
sg6
S'camera'
p1142
sg8
I160883741
ssS'0000000934'
p1143
(dp1144
g3
g4
sg5
I1366496781
sg6
S'camera'
p1145
sg8
I701057043
ssS'0000001228'
p1146
(dp1147
g3
g4
sg5
I1366496787
sg6
S'camera'
p1148
sg8
I581279580
ssS'0000000661'
p1149
(dp1150
g3
g4
sg5
I1366496776
sg6
S'camera'
p1151
sg8
I240848299
ssS'0000000055'
p1152
(dp1153
g3
g4
sg5
I1366496764
sg6
S'camera'
p1154
sg8
I120401610
ssS'0000000054'
p1155
(dp1156
g3
g4
sg5
I1366496764
sg6
S'camera'
p1157
sg8
I100400894
ssS'0000000057'
p1158
(dp1159
g3
g4
sg5
I1366496764
sg6
S'camera'
p1160
sg8
I160403077
ssS'0000000056'
p1161
(dp1162
g3
g4
sg5
I1366496764
sg6
S'camera'
p1163
sg8
I140402354
ssS'0000000118'
p1164
(dp1165
g3
g4
sg5
I1366496765
sg6
S'camera'
p1166
sg8
I380447445
ssS'0000000119'
p1167
(dp1168
g3
g4
sg5
I1366496765
sg6
S'camera'
p1169
sg8
I400448178
ssS'0000000053'
p1170
(dp1171
g3
g4
sg5
I1366496764
sg6
S'camera'
p1172
sg8
I80400184
ssS'0000000052'
p1173
(dp1174
g3
g4
sg5
I1366496764
sg6
S'camera'
p1175
sg8
I60399456
ssS'0000000114'
p1176
(dp1177
g3
g4
sg5
I1366496765
sg6
S'camera'
p1178
sg8
I300444531
ssS'0000000115'
p1179
(dp1180
g3
g4
sg5
I1366496765
sg6
S'camera'
p1181
sg8
I320445232
ssS'0000000116'
p1182
(dp1183
g3
g4
sg5
I1366496765
sg6
S'camera'
p1184
sg8
I340445991
ssS'0000000117'
p1185
(dp1186
g3
g4
sg5
I1366496765
sg6
S'camera'
p1187
sg8
I360446713
ssS'0000000059'
p1188
(dp1189
g3
g4
sg5
I1366496764
sg6
S'camera'
p1190
sg8
I200404536
ssS'0000000058'
p1191
(dp1192
g3
g4
sg5
I1366496764
sg6
S'camera'
p1193
sg8
I180403795
ssS'0000000112'
p1194
(dp1195
g3
g4
sg5
I1366496765
sg6
S'camera'
p1196
sg8
I260443083
ssS'0000000113'
p1197
(dp1198
g3
g4
sg5
I1366496765
sg6
S'camera'
p1199
sg8
I280443812
ssS'0000000637'
p1200
(dp1201
g3
g4
sg5
I1366496775
sg6
S'camera'
p1202
sg8
I760829919
ssS'0000000399'
p1203
(dp1204
g3
g4
sg5
I1366496771
sg6
S'camera'
p1205
sg8
I654349
ssS'0000001130'
p1206
(dp1207
g3
g4
sg5
I1366496785
sg6
S'camera'
p1208
sg8
I621204886
ssS'0000000998'
p1209
(dp1210
g3
g4
sg5
I1366496782
sg6
S'camera'
p1211
sg8
I981105389
ssS'0000000507'
p1212
(dp1213
g3
g4
sg5
I1366496773
sg6
S'camera'
p1214
sg8
I160734936
ssS'0000000506'
p1215
(dp1216
g3
g4
sg5
I1366496773
sg6
S'camera'
p1217
sg8
I140734191
ssS'0000000505'
p1218
(dp1219
g3
g4
sg5
I1366496773
sg6
S'camera'
p1220
sg8
I120733452
ssS'0000000504'
p1221
(dp1222
g3
g4
sg5
I1366496773
sg6
S'camera'
p1223
sg8
I100732726
ssS'0000000503'
p1224
(dp1225
g3
g4
sg5
I1366496773
sg6
S'camera'
p1226
sg8
I80731988
ssS'0000000502'
p1227
(dp1228
g3
g4
sg5
I1366496773
sg6
S'camera'
p1229
sg8
I60731264
ssS'0000000501'
p1230
(dp1231
g3
g4
sg5
I1366496773
sg6
S'camera'
p1232
sg8
I40730537
ssS'0000000500'
p1233
(dp1234
g3
g4
sg5
I1366496773
sg6
S'camera'
p1235
sg8
I20729810
ssS'0000001056'
p1236
(dp1237
g3
g4
sg5
I1366496784
sg6
S'camera'
p1238
sg8
I141148493
ssS'0000001057'
p1239
(dp1240
g3
g4
sg5
I1366496784
sg6
S'camera'
p1241
sg8
I161149269
ssS'0000001054'
p1242
(dp1243
g3
g4
sg5
I1366496784
sg6
S'camera'
p1244
sg8
I101146996
ssS'0000001055'
p1245
(dp1246
g3
g4
sg5
I1366496784
sg6
S'camera'
p1247
sg8
I121147725
ssS'0000001052'
p1248
(dp1249
g3
g4
sg5
I1366496784
sg6
S'camera'
p1250
sg8
I61145549
ssS'0000001053'
p1251
(dp1252
g3
g4
sg5
I1366496784
sg6
S'camera'
p1253
sg8
I81146274
ssS'0000000509'
p1254
(dp1255
g3
g4
sg5
I1366496773
sg6
S'camera'
p1256
sg8
I200736406
ssS'0000000508'
p1257
(dp1258
g3
g4
sg5
I1366496773
sg6
S'camera'
p1259
sg8
I180735663
ssS'0000001140'
p1260
(dp1261
g3
g4
sg5
I1366496785
sg6
S'camera'
p1262
sg8
I821212484
ssS'0000001226'
p1263
(dp1264
g3
g4
sg5
I1366496787
sg6
S'camera'
p1265
sg8
I541278085
ssS'0000000893'
p1266
(dp1267
g3
g4
sg5
I1366496780
sg6
S'camera'
p1268
sg8
I881026110
ssS'0000001219'
p1269
(dp1270
g3
g4
sg5
I1366496787
sg6
S'camera'
p1271
sg8
I401272729
ssS'0000000747'
p1272
(dp1273
g3
g4
sg5
I1366496777
sg6
S'camera'
p1274
sg8
I960914367
ssS'0000000729'
p1275
(dp1276
g3
g4
sg5
I1366496777
sg6
S'camera'
p1277
sg8
I600900496
ssS'0000000800'
p1278
(dp1279
g3
g4
sg5
I1366496779
sg6
S'camera'
p1280
sg8
I20954819
ssS'0000001294'
p1281
(dp1282
g3
g4
sg5
I1366496788
sg6
S'camera'
p1283
sg8
I901329547
ssS'0000000683'
p1284
(dp1285
g3
g4
sg5
I1366496776
sg6
S'camera'
p1286
sg8
I680865192
ssS'0000000699'
p1287
(dp1288
g3
g4
sg5
I1366496777
sg6
S'camera'
p1289
sg8
I877455
ssS'0000000469'
p1290
(dp1291
g3
g4
sg5
I1366496772
sg6
S'camera'
p1292
sg8
I400706936
ssS'0000000897'
p1293
(dp1294
g3
g4
sg5
I1366496780
sg6
S'camera'
p1295
sg8
I961029171
ssS'0000001141'
p1296
(dp1297
g3
g4
sg5
I1366496785
sg6
S'camera'
p1298
sg8
I841213217
ssS'0000000896'
p1299
(dp1300
g3
g4
sg5
I1366496780
sg6
S'camera'
p1301
sg8
I941028424
ssS'0000000370'
p1302
(dp1303
g3
g4
sg5
I1366496770
sg6
S'camera'
p1304
sg8
I420632299
ssS'0000000371'
p1305
(dp1306
g3
g4
sg5
I1366496770
sg6
S'camera'
p1307
sg8
I440633055
ssS'0000000372'
p1308
(dp1309
g3
g4
sg5
I1366496770
sg6
S'camera'
p1310
sg8
I460633834
ssS'0000000373'
p1311
(dp1312
g3
g4
sg5
I1366496770
sg6
S'camera'
p1313
sg8
I480634603
ssS'0000000374'
p1314
(dp1315
g3
g4
sg5
I1366496770
sg6
S'camera'
p1316
sg8
I500635335
ssS'0000000375'
p1317
(dp1318
g3
g4
sg5
I1366496770
sg6
S'camera'
p1319
sg8
I520636100
ssS'0000000376'
p1320
(dp1321
g3
g4
sg5
I1366496770
sg6
S'camera'
p1322
sg8
I540636858
ssS'0000000377'
p1323
(dp1324
g3
g4
sg5
I1366496770
sg6
S'camera'
p1325
sg8
I560637622
ssS'0000000378'
p1326
(dp1327
g3
g4
sg5
I1366496770
sg6
S'camera'
p1328
sg8
I580638380
ssS'0000000379'
p1329
(dp1330
g3
g4
sg5
I1366496770
sg6
S'camera'
p1331
sg8
I600639139
ssS'0000000471'
p1332
(dp1333
g3
g4
sg5
I1366496772
sg6
S'camera'
p1334
sg8
I440708395
ssS'0000000470'
p1335
(dp1336
g3
g4
sg5
I1366496772
sg6
S'camera'
p1337
sg8
I420707667
ssS'0000000477'
p1338
(dp1339
g3
g4
sg5
I1366496772
sg6
S'camera'
p1340
sg8
I560712800
ssS'0000000476'
p1341
(dp1342
g3
g4
sg5
I1366496772
sg6
S'camera'
p1343
sg8
I540712042
ssS'0000000475'
p1344
(dp1345
g3
g4
sg5
I1366496772
sg6
S'camera'
p1346
sg8
I520711321
ssS'0000000474'
p1347
(dp1348
g3
g4
sg5
I1366496772
sg6
S'camera'
p1349
sg8
I500710600
ssS'0000000572'
p1350
(dp1351
g3
g4
sg5
I1366496774
sg6
S'camera'
p1352
sg8
I460782335
ssS'0000000573'
p1353
(dp1354
g3
g4
sg5
I1366496774
sg6
S'camera'
p1355
sg8
I480783072
ssS'0000000570'
p1356
(dp1357
g3
g4
sg5
I1366496774
sg6
S'camera'
p1358
sg8
I420780875
ssS'0000000571'
p1359
(dp1360
g3
g4
sg5
I1366496774
sg6
S'camera'
p1361
sg8
I440781601
ssS'0000000576'
p1362
(dp1363
g3
g4
sg5
I1366496774
sg6
S'camera'
p1364
sg8
I540785231
ssS'0000000577'
p1365
(dp1366
g3
g4
sg5
I1366496774
sg6
S'camera'
p1367
sg8
I560785958
ssS'0000000574'
p1368
(dp1369
g3
g4
sg5
I1366496774
sg6
S'camera'
p1370
sg8
I500783787
ssS'0000000575'
p1371
(dp1372
g3
g4
sg5
I1366496774
sg6
S'camera'
p1373
sg8
I520784533
ssS'0000001272'
p1374
(dp1375
g3
g4
sg5
I1366496788
sg6
S'camera'
p1376
sg8
I461312954
ssS'0000000578'
p1377
(dp1378
g3
g4
sg5
I1366496774
sg6
S'camera'
p1379
sg8
I580786692
ssS'0000000579'
p1380
(dp1381
g3
g4
sg5
I1366496774
sg6
S'camera'
p1382
sg8
I600787414
ssS'0000001273'
p1383
(dp1384
g3
g4
sg5
I1366496788
sg6
S'camera'
p1385
sg8
I481313707
ssS'0000001270'
p1386
(dp1387
g3
g4
sg5
I1366496788
sg6
S'camera'
p1388
sg8
I421311426
ssS'0000001296'
p1389
(dp1390
g3
g4
sg5
I1366496788
sg6
S'camera'
p1391
sg8
I941330979
ssS'0000001271'
p1392
(dp1393
g3
g4
sg5
I1366496788
sg6
S'camera'
p1394
sg8
I441312177
ssS'0000000696'
p1395
(dp1396
g3
g4
sg5
I1366496776
sg6
S'camera'
p1397
sg8
I940875157
ssS'0000000877'
p1398
(dp1399
g3
g4
sg5
I1366496780
sg6
S'camera'
p1400
sg8
I561013907
ssS'0000000876'
p1401
(dp1402
g3
g4
sg5
I1366496780
sg6
S'camera'
p1403
sg8
I541013135
ssS'0000000875'
p1404
(dp1405
g3
g4
sg5
I1366496780
sg6
S'camera'
p1406
sg8
I521012371
ssS'0000000874'
p1407
(dp1408
g3
g4
sg5
I1366496780
sg6
S'camera'
p1409
sg8
I501011602
ssS'0000000873'
p1410
(dp1411
g3
g4
sg5
I1366496780
sg6
S'camera'
p1412
sg8
I481010837
ssS'0000000872'
p1413
(dp1414
g3
g4
sg5
I1366496780
sg6
S'camera'
p1415
sg8
I461010111
ssS'0000000871'
p1416
(dp1417
g3
g4
sg5
I1366496780
sg6
S'camera'
p1418
sg8
I441009349
ssS'0000000870'
p1419
(dp1420
g3
g4
sg5
I1366496780
sg6
S'camera'
p1421
sg8
I421008583
ssS'0000000741'
p1422
(dp1423
g3
g4
sg5
I1366496777
sg6
S'camera'
p1424
sg8
I840909628
ssS'0000000977'
p1425
(dp1426
g3
g4
sg5
I1366496782
sg6
S'camera'
p1427
sg8
I561089320
ssS'0000000714'
p1428
(dp1429
g3
g4
sg5
I1366496777
sg6
S'camera'
p1430
sg8
I300889088
ssS'0000000694'
p1431
(dp1432
g3
g4
sg5
I1366496776
sg6
S'camera'
p1433
sg8
I900873638
ssS'0000000723'
p1434
(dp1435
g3
g4
sg5
I1366496777
sg6
S'camera'
p1436
sg8
I480895931
ssS'0000000973'
p1437
(dp1438
g3
g4
sg5
I1366496782
sg6
S'camera'
p1439
sg8
I481086372
ssS'0000000879'
p1440
(dp1441
g3
g4
sg5
I1366496780
sg6
S'camera'
p1442
sg8
I601015448
ssS'0000000878'
p1443
(dp1444
g3
g4
sg5
I1366496780
sg6
S'camera'
p1445
sg8
I581014682
ssS'0000001249'
p1446
(dp1447
g3
g4
sg5
I1366496788
sg6
S'camera'
p1448
sg8
I1295507
ssS'0000000659'
p1449
(dp1450
g3
g4
sg5
I1366496776
sg6
S'camera'
p1451
sg8
I200846747
ssS'0000000658'
p1452
(dp1453
g3
g4
sg5
I1366496776
sg6
S'camera'
p1454
sg8
I180845982
ssS'0000000657'
p1455
(dp1456
g3
g4
sg5
I1366496776
sg6
S'camera'
p1457
sg8
I160845233
ssS'0000000656'
p1458
(dp1459
g3
g4
sg5
I1366496776
sg6
S'camera'
p1460
sg8
I140844450
ssS'0000000655'
p1461
(dp1462
g3
g4
sg5
I1366496776
sg6
S'camera'
p1463
sg8
I120843716
ssS'0000000654'
p1464
(dp1465
g3
g4
sg5
I1366496776
sg6
S'camera'
p1466
sg8
I100842928
ssS'0000000653'
p1467
(dp1468
g3
g4
sg5
I1366496776
sg6
S'camera'
p1469
sg8
I80842127
ssS'0000000652'
p1470
(dp1471
g3
g4
sg5
I1366496776
sg6
S'camera'
p1472
sg8
I60841398
ssS'0000000651'
p1473
(dp1474
g3
g4
sg5
I1366496776
sg6
S'camera'
p1475
sg8
I40840635
ssS'0000000650'
p1476
(dp1477
g3
g4
sg5
I1366496776
sg6
S'camera'
p1478
sg8
I20839823
ssS'0000000716'
p1479
(dp1480
g3
g4
sg5
I1366496777
sg6
S'camera'
p1481
sg8
I340890625
ssS'0000000717'
p1482
(dp1483
g3
g4
sg5
I1366496777
sg6
S'camera'
p1484
sg8
I360891352
ssS'0000000583'
p1485
(dp1486
g3
g4
sg5
I1366496774
sg6
S'camera'
p1487
sg8
I680790356
ssS'0000000715'
p1488
(dp1489
g3
g4
sg5
I1366496777
sg6
S'camera'
p1490
sg8
I320889880
ssS'0000000712'
p1491
(dp1492
g3
g4
sg5
I1366496777
sg6
S'camera'
p1493
sg8
I260887530
ssS'0000000713'
p1494
(dp1495
g3
g4
sg5
I1366496777
sg6
S'camera'
p1496
sg8
I280888315
ssS'0000000710'
p1497
(dp1498
g3
g4
sg5
I1366496777
sg6
S'camera'
p1499
sg8
I220886014
ssS'0000000711'
p1500
(dp1501
g3
g4
sg5
I1366496777
sg6
S'camera'
p1502
sg8
I240886763
ssS'0000000891'
p1503
(dp1504
g3
g4
sg5
I1366496780
sg6
S'camera'
p1505
sg8
I841024552
ssS'0000000890'
p1506
(dp1507
g3
g4
sg5
I1366496780
sg6
S'camera'
p1508
sg8
I821023814
ssS'0000000722'
p1509
(dp1510
g3
g4
sg5
I1366496777
sg6
S'camera'
p1511
sg8
I460895177
ssS'0000000892'
p1512
(dp1513
g3
g4
sg5
I1366496780
sg6
S'camera'
p1514
sg8
I861025329
ssS'0000000895'
p1515
(dp1516
g3
g4
sg5
I1366496780
sg6
S'camera'
p1517
sg8
I921027618
ssS'0000000894'
p1518
(dp1519
g3
g4
sg5
I1366496780
sg6
S'camera'
p1520
sg8
I901026856
ssS'0000000718'
p1521
(dp1522
g3
g4
sg5
I1366496777
sg6
S'camera'
p1523
sg8
I380892133
ssS'0000000719'
p1524
(dp1525
g3
g4
sg5
I1366496777
sg6
S'camera'
p1526
sg8
I400892923
ssS'0000000486'
p1527
(dp1528
g3
g4
sg5
I1366496772
sg6
S'camera'
p1529
sg8
I740719551
ssS'0000000487'
p1530
(dp1531
g3
g4
sg5
I1366496772
sg6
S'camera'
p1532
sg8
I760720292
ssS'0000000484'
p1533
(dp1534
g3
g4
sg5
I1366496772
sg6
S'camera'
p1535
sg8
I700718044
ssS'0000000485'
p1536
(dp1537
g3
g4
sg5
I1366496772
sg6
S'camera'
p1538
sg8
I720718782
ssS'0000000482'
p1539
(dp1540
g3
g4
sg5
I1366496772
sg6
S'camera'
p1541
sg8
I660716546
ssS'0000000483'
p1542
(dp1543
g3
g4
sg5
I1366496772
sg6
S'camera'
p1544
sg8
I680717300
ssS'0000000480'
p1545
(dp1546
g3
g4
sg5
I1366496772
sg6
S'camera'
p1547
sg8
I620715077
ssS'0000000481'
p1548
(dp1549
g3
g4
sg5
I1366496772
sg6
S'camera'
p1550
sg8
I640715831
ssS'0000001171'
p1551
(dp1552
g3
g4
sg5
I1366496786
sg6
S'camera'
p1553
sg8
I441236136
ssS'0000001170'
p1554
(dp1555
g3
g4
sg5
I1366496786
sg6
S'camera'
p1556
sg8
I421235390
ssS'0000001173'
p1557
(dp1558
g3
g4
sg5
I1366496786
sg6
S'camera'
p1559
sg8
I481237666
ssS'0000001172'
p1560
(dp1561
g3
g4
sg5
I1366496786
sg6
S'camera'
p1562
sg8
I461236914
ssS'0000001175'
p1563
(dp1564
g3
g4
sg5
I1366496786
sg6
S'camera'
p1565
sg8
I521239184
ssS'0000001174'
p1566
(dp1567
g3
g4
sg5
I1366496786
sg6
S'camera'
p1568
sg8
I501238428
ssS'0000000488'
p1569
(dp1570
g3
g4
sg5
I1366496772
sg6
S'camera'
p1571
sg8
I780721022
ssS'0000000489'
p1572
(dp1573
g3
g4
sg5
I1366496772
sg6
S'camera'
p1574
sg8
I800721744
ssS'0000000582'
p1575
(dp1576
g3
g4
sg5
I1366496774
sg6
S'camera'
p1577
sg8
I660789618
ssS'0000001276'
p1578
(dp1579
g3
g4
sg5
I1366496788
sg6
S'camera'
p1580
sg8
I541315945
ssS'0000000996'
p1581
(dp1582
g3
g4
sg5
I1366496782
sg6
S'camera'
p1583
sg8
I941103859
ssS'0000000743'
p1584
(dp1585
g3
g4
sg5
I1366496777
sg6
S'camera'
p1586
sg8
I880911162
ssS'0000001059'
p1587
(dp1588
g3
g4
sg5
I1366496784
sg6
S'camera'
p1589
sg8
I201150823
ssS'0000000746'
p1590
(dp1591
g3
g4
sg5
I1366496777
sg6
S'camera'
p1592
sg8
I940913488
ssS'0000001019'
p1593
(dp1594
g3
g4
sg5
I1366496783
sg6
S'camera'
p1595
sg8
I401121367
ssS'0000001277'
p1596
(dp1597
g3
g4
sg5
I1366496788
sg6
S'camera'
p1598
sg8
I561316717
ssS'0000000899'
p1599
(dp1600
g3
g4
sg5
I1366496781
sg6
S'camera'
p1601
sg8
I1030683
ssS'0000001126'
p1602
(dp1603
g3
g4
sg5
I1366496785
sg6
S'camera'
p1604
sg8
I541201842
ssS'0000001088'
p1605
(dp1606
g3
g4
sg5
I1366496784
sg6
S'camera'
p1607
sg8
I781172916
ssS'0000000031'
p1608
(dp1609
g3
g4
sg5
I1366496763
sg6
S'camera'
p1610
sg8
I640384262
ssS'0000000158'
p1611
(dp1612
g3
g4
sg5
I1366496766
sg6
S'camera'
p1613
sg8
I180476545
ssS'0000000159'
p1614
(dp1615
g3
g4
sg5
I1366496766
sg6
S'camera'
p1616
sg8
I200477252
ssS'0000000093'
p1617
(dp1618
g3
g4
sg5
I1366496764
sg6
S'camera'
p1619
sg8
I880429311
ssS'0000000092'
p1620
(dp1621
g3
g4
sg5
I1366496764
sg6
S'camera'
p1622
sg8
I860428579
ssS'0000000095'
p1623
(dp1624
g3
g4
sg5
I1366496764
sg6
S'camera'
p1625
sg8
I920430743
ssS'0000000094'
p1626
(dp1627
g3
g4
sg5
I1366496764
sg6
S'camera'
p1628
sg8
I900430029
ssS'0000000097'
p1629
(dp1630
g3
g4
sg5
I1366496764
sg6
S'camera'
p1631
sg8
I960432238
ssS'0000000096'
p1632
(dp1633
g3
g4
sg5
I1366496764
sg6
S'camera'
p1634
sg8
I940431514
ssS'0000000150'
p1635
(dp1636
g3
g4
sg5
I1366496766
sg6
S'camera'
p1637
sg8
I20470686
ssS'0000000151'
p1638
(dp1639
g3
g4
sg5
I1366496766
sg6
S'camera'
p1640
sg8
I40471424
ssS'0000000152'
p1641
(dp1642
g3
g4
sg5
I1366496766
sg6
S'camera'
p1643
sg8
I60472148
ssS'0000000153'
p1644
(dp1645
g3
g4
sg5
I1366496766
sg6
S'camera'
p1646
sg8
I80472885
ssS'0000000154'
p1647
(dp1648
g3
g4
sg5
I1366496766
sg6
S'camera'
p1649
sg8
I100473610
ssS'0000000155'
p1650
(dp1651
g3
g4
sg5
I1366496766
sg6
S'camera'
p1652
sg8
I120474312
ssS'0000000156'
p1653
(dp1654
g3
g4
sg5
I1366496766
sg6
S'camera'
p1655
sg8
I140475084
ssS'0000000157'
p1656
(dp1657
g3
g4
sg5
I1366496766
sg6
S'camera'
p1658
sg8
I160475812
ssS'0000000253'
p1659
(dp1660
g3
g4
sg5
I1366496768
sg6
S'camera'
p1661
sg8
I80545717
ssS'0000000252'
p1662
(dp1663
g3
g4
sg5
I1366496768
sg6
S'camera'
p1664
sg8
I60544990
ssS'0000000251'
p1665
(dp1666
g3
g4
sg5
I1366496768
sg6
S'camera'
p1667
sg8
I40544246
ssS'0000000250'
p1668
(dp1669
g3
g4
sg5
I1366496768
sg6
S'camera'
p1670
sg8
I20543523
ssS'0000000257'
p1671
(dp1672
g3
g4
sg5
I1366496768
sg6
S'camera'
p1673
sg8
I160548645
ssS'0000000256'
p1674
(dp1675
g3
g4
sg5
I1366496768
sg6
S'camera'
p1676
sg8
I140547918
ssS'0000000255'
p1677
(dp1678
g3
g4
sg5
I1366496768
sg6
S'camera'
p1679
sg8
I120547164
ssS'0000000254'
p1680
(dp1681
g3
g4
sg5
I1366496768
sg6
S'camera'
p1682
sg8
I100546435
ssS'0000000392'
p1683
(dp1684
g3
g4
sg5
I1366496770
sg6
S'camera'
p1685
sg8
I860649023
ssS'0000000393'
p1686
(dp1687
g3
g4
sg5
I1366496770
sg6
S'camera'
p1688
sg8
I880649760
ssS'0000000259'
p1689
(dp1690
g3
g4
sg5
I1366496768
sg6
S'camera'
p1691
sg8
I200550109
ssS'0000000258'
p1692
(dp1693
g3
g4
sg5
I1366496768
sg6
S'camera'
p1694
sg8
I180549389
ssS'0000000396'
p1695
(dp1696
g3
g4
sg5
I1366496770
sg6
S'camera'
p1697
sg8
I940652047
ssS'0000000397'
p1698
(dp1699
g3
g4
sg5
I1366496770
sg6
S'camera'
p1700
sg8
I960652813
ssS'0000000394'
p1701
(dp1702
g3
g4
sg5
I1366496770
sg6
S'camera'
p1703
sg8
I900650521
ssS'0000000395'
p1704
(dp1705
g3
g4
sg5
I1366496770
sg6
S'camera'
p1706
sg8
I920651273
ssS'0000000745'
p1707
(dp1708
g3
g4
sg5
I1366496777
sg6
S'camera'
p1709
sg8
I920912738
ssS'0000001297'
p1710
(dp1711
g3
g4
sg5
I1366496788
sg6
S'camera'
p1712
sg8
I961331700
ssS'0000001080'
p1713
(dp1714
g3
g4
sg5
I1366496784
sg6
S'camera'
p1715
sg8
I621166784
ssS'0000001179'
p1716
(dp1717
g3
g4
sg5
I1366496786
sg6
S'camera'
p1718
sg8
I601242268
ssS'0000001275'
p1719
(dp1720
g3
g4
sg5
I1366496788
sg6
S'camera'
p1721
sg8
I521315206
ssS'0000001242'
p1722
(dp1723
g3
g4
sg5
I1366496787
sg6
S'camera'
p1724
sg8
I861290179
ssS'0000001293'
p1725
(dp1726
g3
g4
sg5
I1366496788
sg6
S'camera'
p1727
sg8
I881328800
ssS'0000000039'
p1728
(dp1729
g3
g4
sg5
I1366496763
sg6
S'camera'
p1730
sg8
I800390059
ssS'0000001291'
p1731
(dp1732
g3
g4
sg5
I1366496788
sg6
S'camera'
p1733
sg8
I841327253
ssS'0000000038'
p1734
(dp1735
g3
g4
sg5
I1366496763
sg6
S'camera'
p1736
sg8
I780389350
ssS'0000000589'
p1737
(dp1738
g3
g4
sg5
I1366496774
sg6
S'camera'
p1739
sg8
I800794730
ssS'0000001085'
p1740
(dp1741
g3
g4
sg5
I1366496784
sg6
S'camera'
p1742
sg8
I721170608
ssS'0000000588'
p1743
(dp1744
g3
g4
sg5
I1366496774
sg6
S'camera'
p1745
sg8
I780794000
ssS'0000001125'
p1746
(dp1747
g3
g4
sg5
I1366496785
sg6
S'camera'
p1748
sg8
I521201081
ssS'0000001199'
p1749
(dp1750
g3
g4
sg5
I1366496787
sg6
S'camera'
p1751
sg8
I1257466
ssS'0000000744'
p1752
(dp1753
g3
g4
sg5
I1366496777
sg6
S'camera'
p1754
sg8
I900911938
ssS'0000001084'
p1755
(dp1756
g3
g4
sg5
I1366496784
sg6
S'camera'
p1757
sg8
I701169838
ssS'0000001117'
p1758
(dp1759
g3
g4
sg5
I1366496785
sg6
S'camera'
p1760
sg8
I361194987
ssS'0000001176'
p1761
(dp1762
g3
g4
sg5
I1366496786
sg6
S'camera'
p1763
sg8
I541239963
ssS'0000001128'
p1764
(dp1765
g3
g4
sg5
I1366496785
sg6
S'camera'
p1766
sg8
I581203350
ssS'0000001116'
p1767
(dp1768
g3
g4
sg5
I1366496785
sg6
S'camera'
p1769
sg8
I341194207
ssS'0000000820'
p1770
(dp1771
g3
g4
sg5
I1366496779
sg6
S'camera'
p1772
sg8
I420970131
ssS'0000001129'
p1773
(dp1774
g3
g4
sg5
I1366496785
sg6
S'camera'
p1775
sg8
I601204122
ssS'0000001115'
p1776
(dp1777
g3
g4
sg5
I1366496785
sg6
S'camera'
p1778
sg8
I321193438
ssS'0000000821'
p1779
(dp1780
g3
g4
sg5
I1366496779
sg6
S'camera'
p1781
sg8
I440970881
ssS'0000001114'
p1782
(dp1783
g3
g4
sg5
I1366496785
sg6
S'camera'
p1784
sg8
I301192692
ssS'0000000028'
p1785
(dp1786
g3
g4
sg5
I1366496763
sg6
S'camera'
p1787
sg8
I580382105
ssS'0000000029'
p1788
(dp1789
g3
g4
sg5
I1366496763
sg6
S'camera'
p1790
sg8
I600382824
ssS'0000001158'
p1791
(dp1792
g3
g4
sg5
I1366496786
sg6
S'camera'
p1793
sg8
I181226197
ssS'0000000024'
p1794
(dp1795
g3
g4
sg5
I1366496763
sg6
S'camera'
p1796
sg8
I500379107
ssS'0000000025'
p1797
(dp1798
g3
g4
sg5
I1366496763
sg6
S'camera'
p1799
sg8
I520379875
ssS'0000000026'
p1800
(dp1801
g3
g4
sg5
I1366496763
sg6
S'camera'
p1802
sg8
I540380643
ssS'0000000027'
p1803
(dp1804
g3
g4
sg5
I1366496763
sg6
S'camera'
p1805
sg8
I560381382
ssS'0000000020'
p1806
(dp1807
g3
g4
sg5
I1366496763
sg6
S'camera'
p1808
sg8
I420376017
ssS'0000000021'
p1809
(dp1810
g3
g4
sg5
I1366496763
sg6
S'camera'
p1811
sg8
I440376778
ssS'0000000022'
p1812
(dp1813
g3
g4
sg5
I1366496763
sg6
S'camera'
p1814
sg8
I460377556
ssS'0000000023'
p1815
(dp1816
g3
g4
sg5
I1366496763
sg6
S'camera'
p1817
sg8
I480378328
ssS'0000000838'
p1818
(dp1819
g3
g4
sg5
I1366496779
sg6
S'camera'
p1820
sg8
I780983804
ssS'0000001111'
p1821
(dp1822
g3
g4
sg5
I1366496785
sg6
S'camera'
p1823
sg8
I241190442
ssS'0000001110'
p1824
(dp1825
g3
g4
sg5
I1366496785
sg6
S'camera'
p1826
sg8
I221189656
ssS'0000001178'
p1827
(dp1828
g3
g4
sg5
I1366496786
sg6
S'camera'
p1829
sg8
I581241489
ssS'0000000437'
p1830
(dp1831
g3
g4
sg5
I1366496771
sg6
S'camera'
p1832
sg8
I760683461
ssS'0000000436'
p1833
(dp1834
g3
g4
sg5
I1366496771
sg6
S'camera'
p1835
sg8
I740682643
ssS'0000000435'
p1836
(dp1837
g3
g4
sg5
I1366496771
sg6
S'camera'
p1838
sg8
I720681915
ssS'0000000434'
p1839
(dp1840
g3
g4
sg5
I1366496771
sg6
S'camera'
p1841
sg8
I700681175
ssS'0000000433'
p1842
(dp1843
g3
g4
sg5
I1366496771
sg6
S'camera'
p1844
sg8
I680680432
ssS'0000000432'
p1845
(dp1846
g3
g4
sg5
I1366496771
sg6
S'camera'
p1847
sg8
I660679705
ssS'0000000431'
p1848
(dp1849
g3
g4
sg5
I1366496771
sg6
S'camera'
p1850
sg8
I640678980
ssS'0000000430'
p1851
(dp1852
g3
g4
sg5
I1366496771
sg6
S'camera'
p1853
sg8
I620678201
ssS'0000000536'
p1854
(dp1855
g3
g4
sg5
I1366496773
sg6
S'camera'
p1856
sg8
I740756184
ssS'0000000537'
p1857
(dp1858
g3
g4
sg5
I1366496773
sg6
S'camera'
p1859
sg8
I760756913
ssS'0000000534'
p1860
(dp1861
g3
g4
sg5
I1366496773
sg6
S'camera'
p1862
sg8
I700754731
ssS'0000000535'
p1863
(dp1864
g3
g4
sg5
I1366496773
sg6
S'camera'
p1865
sg8
I720755452
ssS'0000000532'
p1866
(dp1867
g3
g4
sg5
I1366496773
sg6
S'camera'
p1868
sg8
I660753247
ssS'0000000268'
p1869
(dp1870
g3
g4
sg5
I1366496768
sg6
S'camera'
p1871
sg8
I380556679
ssS'0000000439'
p1872
(dp1873
g3
g4
sg5
I1366496771
sg6
S'camera'
p1874
sg8
I800684909
ssS'0000000438'
p1875
(dp1876
g3
g4
sg5
I1366496771
sg6
S'camera'
p1877
sg8
I780684209
ssS'0000001001'
p1878
(dp1879
g3
g4
sg5
I1366496783
sg6
S'camera'
p1880
sg8
I41107599
ssS'0000001000'
p1881
(dp1882
g3
g4
sg5
I1366496783
sg6
S'camera'
p1883
sg8
I21106879
ssS'0000001003'
p1884
(dp1885
g3
g4
sg5
I1366496783
sg6
S'camera'
p1886
sg8
I81109156
ssS'0000000269'
p1887
(dp1888
g3
g4
sg5
I1366496768
sg6
S'camera'
p1889
sg8
I400557415
ssS'0000001005'
p1890
(dp1891
g3
g4
sg5
I1366496783
sg6
S'camera'
p1892
sg8
I121110670
ssS'0000001004'
p1893
(dp1894
g3
g4
sg5
I1366496783
sg6
S'camera'
p1895
sg8
I101109905
ssS'0000001007'
p1896
(dp1897
g3
g4
sg5
I1366496783
sg6
S'camera'
p1898
sg8
I161112204
ssS'0000000832'
p1899
(dp1900
g3
g4
sg5
I1366496779
sg6
S'camera'
p1901
sg8
I660979221
ssS'0000001009'
p1902
(dp1903
g3
g4
sg5
I1366496783
sg6
S'camera'
p1904
sg8
I201113752
ssS'0000001008'
p1905
(dp1906
g3
g4
sg5
I1366496783
sg6
S'camera'
p1907
sg8
I181112985
ssS'0000000829'
p1908
(dp1909
g3
g4
sg5
I1366496779
sg6
S'camera'
p1910
sg8
I600976904
ssS'0000001119'
p1911
(dp1912
g3
g4
sg5
I1366496785
sg6
S'camera'
p1913
sg8
I401196532
ssS'0000001198'
p1914
(dp1915
g3
g4
sg5
I1366496786
sg6
S'camera'
p1916
sg8
I981256697
ssS'0000000091'
p1917
(dp1918
g3
g4
sg5
I1366496764
sg6
S'camera'
p1919
sg8
I840427856
ssS'0000001268'
p1920
(dp1921
g3
g4
sg5
I1366496788
sg6
S'camera'
p1922
sg8
I381309921
ssS'0000000090'
p1923
(dp1924
g3
g4
sg5
I1366496764
sg6
S'camera'
p1925
sg8
I820427135
ssS'0000000628'
p1926
(dp1927
g3
g4
sg5
I1366496775
sg6
S'camera'
p1928
sg8
I580823177
ssS'0000001224'
p1929
(dp1930
g3
g4
sg5
I1366496787
sg6
S'camera'
p1931
sg8
I501276557
ssS'0000000629'
p1932
(dp1933
g3
g4
sg5
I1366496775
sg6
S'camera'
p1934
sg8
I600823911
ssS'0000000834'
p1935
(dp1936
g3
g4
sg5
I1366496779
sg6
S'camera'
p1937
sg8
I700980732
ssS'0000001118'
p1938
(dp1939
g3
g4
sg5
I1366496785
sg6
S'camera'
p1940
sg8
I381195756
ssS'0000000260'
p1941
(dp1942
g3
g4
sg5
I1366496768
sg6
S'camera'
p1943
sg8
I220550842
ssS'0000000280'
p1944
(dp1945
g3
g4
sg5
I1366496768
sg6
S'camera'
p1946
sg8
I620565417
ssS'0000000281'
p1947
(dp1948
g3
g4
sg5
I1366496768
sg6
S'camera'
p1949
sg8
I640566157
ssS'0000000282'
p1950
(dp1951
g3
g4
sg5
I1366496768
sg6
S'camera'
p1952
sg8
I660566866
ssS'0000000283'
p1953
(dp1954
g3
g4
sg5
I1366496768
sg6
S'camera'
p1955
sg8
I680567594
ssS'0000000284'
p1956
(dp1957
g3
g4
sg5
I1366496768
sg6
S'camera'
p1958
sg8
I700568320
ssS'0000000285'
p1959
(dp1960
g3
g4
sg5
I1366496768
sg6
S'camera'
p1961
sg8
I720569052
ssS'0000000286'
p1962
(dp1963
g3
g4
sg5
I1366496768
sg6
S'camera'
p1964
sg8
I740569787
ssS'0000000287'
p1965
(dp1966
g3
g4
sg5
I1366496768
sg6
S'camera'
p1967
sg8
I760570514
ssS'0000000288'
p1968
(dp1969
g3
g4
sg5
I1366496768
sg6
S'camera'
p1970
sg8
I780571237
ssS'0000000289'
p1971
(dp1972
g3
g4
sg5
I1366496768
sg6
S'camera'
p1973
sg8
I800571963
ssS'0000000321'
p1974
(dp1975
g3
g4
sg5
I1366496769
sg6
S'camera'
p1976
sg8
I440595348
ssS'0000000320'
p1977
(dp1978
g3
g4
sg5
I1366496769
sg6
S'camera'
p1979
sg8
I420594639
ssS'0000000327'
p1980
(dp1981
g3
g4
sg5
I1366496769
sg6
S'camera'
p1982
sg8
I560599720
ssS'0000000326'
p1983
(dp1984
g3
g4
sg5
I1366496769
sg6
S'camera'
p1985
sg8
I540598990
ssS'0000000325'
p1986
(dp1987
g3
g4
sg5
I1366496769
sg6
S'camera'
p1988
sg8
I520598250
ssS'0000000324'
p1989
(dp1990
g3
g4
sg5
I1366496769
sg6
S'camera'
p1991
sg8
I500597529
ssS'0000000442'
p1992
(dp1993
g3
g4
sg5
I1366496771
sg6
S'camera'
p1994
sg8
I860687171
ssS'0000000099'
p1995
(dp1996
g3
g4
sg5
I1366496765
sg6
S'camera'
p1997
sg8
I433676
ssS'0000000440'
p1998
(dp1999
g3
g4
sg5
I1366496771
sg6
S'camera'
p2000
sg8
I820685627
ssS'0000000441'
p2001
(dp2002
g3
g4
sg5
I1366496771
sg6
S'camera'
p2003
sg8
I840686363
ssS'0000000446'
p2004
(dp2005
g3
g4
sg5
I1366496771
sg6
S'camera'
p2006
sg8
I940690084
ssS'0000000447'
p2007
(dp2008
g3
g4
sg5
I1366496771
sg6
S'camera'
p2009
sg8
I960690812
ssS'0000000444'
p2010
(dp2011
g3
g4
sg5
I1366496771
sg6
S'camera'
p2012
sg8
I900688624
ssS'0000000098'
p2013
(dp2014
g3
g4
sg5
I1366496764
sg6
S'camera'
p2015
sg8
I980432956
ssS'0000000598'
p2016
(dp2017
g3
g4
sg5
I1366496774
sg6
S'camera'
p2018
sg8
I980801277
ssS'0000000910'
p2019
(dp2020
g3
g4
sg5
I1366496781
sg6
S'camera'
p2021
sg8
I221038899
ssS'0000000445'
p2022
(dp2023
g3
g4
sg5
I1366496771
sg6
S'camera'
p2024
sg8
I920689355
ssS'0000000449'
p2025
(dp2026
g3
g4
sg5
I1366496772
sg6
S'camera'
p2027
sg8
I692266
ssS'0000000990'
p2028
(dp2029
g3
g4
sg5
I1366496782
sg6
S'camera'
p2030
sg8
I821099207
ssS'0000000620'
p2031
(dp2032
g3
g4
sg5
I1366496775
sg6
S'camera'
p2033
sg8
I420817350
ssS'0000000992'
p2034
(dp2035
g3
g4
sg5
I1366496782
sg6
S'camera'
p2036
sg8
I861100748
ssS'0000000911'
p2037
(dp2038
g3
g4
sg5
I1366496781
sg6
S'camera'
p2039
sg8
I241039637
ssS'0000001135'
p2040
(dp2041
g3
g4
sg5
I1366496785
sg6
S'camera'
p2042
sg8
I721208728
ssS'0000001134'
p2043
(dp2044
g3
g4
sg5
I1366496785
sg6
S'camera'
p2045
sg8
I701207966
ssS'0000001137'
p2046
(dp2047
g3
g4
sg5
I1366496785
sg6
S'camera'
p2048
sg8
I761210216
ssS'0000000621'
p2049
(dp2050
g3
g4
sg5
I1366496775
sg6
S'camera'
p2051
sg8
I440818073
ssS'0000001131'
p2052
(dp2053
g3
g4
sg5
I1366496785
sg6
S'camera'
p2054
sg8
I641205655
ssS'0000000160'
p2055
(dp2056
g3
g4
sg5
I1366496766
sg6
S'camera'
p2057
sg8
I220478004
ssS'0000001133'
p2058
(dp2059
g3
g4
sg5
I1366496785
sg6
S'camera'
p2060
sg8
I681207186
ssS'0000000861'
p2061
(dp2062
g3
g4
sg5
I1366496780
sg6
S'camera'
p2063
sg8
I241001428
ssS'0000000626'
p2064
(dp2065
g3
g4
sg5
I1366496775
sg6
S'camera'
p2066
sg8
I540821716
ssS'0000000913'
p2067
(dp2068
g3
g4
sg5
I1366496781
sg6
S'camera'
p2069
sg8
I281041164
ssS'0000001139'
p2070
(dp2071
g3
g4
sg5
I1366496785
sg6
S'camera'
p2072
sg8
I801211764
ssS'0000000909'
p2073
(dp2074
g3
g4
sg5
I1366496781
sg6
S'camera'
p2075
sg8
I201038164
ssS'0000000627'
p2076
(dp2077
g3
g4
sg5
I1366496775
sg6
S'camera'
p2078
sg8
I560822447
ssS'0000000622'
p2079
(dp2080
g3
g4
sg5
I1366496775
sg6
S'camera'
p2081
sg8
I460818804
ssS'0000000908'
p2082
(dp2083
g3
g4
sg5
I1366496781
sg6
S'camera'
p2084
sg8
I181037451
ssS'0000000624'
p2085
(dp2086
g3
g4
sg5
I1366496775
sg6
S'camera'
p2087
sg8
I500820261
ssS'0000000599'
p2088
(dp2089
g3
g4
sg5
I1366496775
sg6
S'camera'
p2090
sg8
I802010
ssS'0000000849'
p2091
(dp2092
g3
g4
sg5
I1366496780
sg6
S'camera'
p2093
sg8
I992185
ssS'0000000846'
p2094
(dp2095
g3
g4
sg5
I1366496779
sg6
S'camera'
p2096
sg8
I940989884
ssS'0000000847'
p2097
(dp2098
g3
g4
sg5
I1366496779
sg6
S'camera'
p2099
sg8
I960990665
ssS'0000000844'
p2100
(dp2101
g3
g4
sg5
I1366496779
sg6
S'camera'
p2102
sg8
I900988345
ssS'0000000625'
p2103
(dp2104
g3
g4
sg5
I1366496775
sg6
S'camera'
p2105
sg8
I520820986
ssS'0000000842'
p2106
(dp2107
g3
g4
sg5
I1366496779
sg6
S'camera'
p2108
sg8
I860986815
ssS'0000000843'
p2109
(dp2110
g3
g4
sg5
I1366496779
sg6
S'camera'
p2111
sg8
I880987582
ssS'0000000840'
p2112
(dp2113
g3
g4
sg5
I1366496779
sg6
S'camera'
p2114
sg8
I820985327
ssS'0000000841'
p2115
(dp2116
g3
g4
sg5
I1366496779
sg6
S'camera'
p2117
sg8
I840986094
ssS'0000000866'
p2118
(dp2119
g3
g4
sg5
I1366496780
sg6
S'camera'
p2120
sg8
I341005274
ssS'0000000918'
p2121
(dp2122
g3
g4
sg5
I1366496781
sg6
S'camera'
p2123
sg8
I381044963
ssS'0000000867'
p2124
(dp2125
g3
g4
sg5
I1366496780
sg6
S'camera'
p2126
sg8
I361006327
ssS'0000000398'
p2127
(dp2128
g3
g4
sg5
I1366496770
sg6
S'camera'
p2129
sg8
I980653587
ssS'0000000623'
p2130
(dp2131
g3
g4
sg5
I1366496775
sg6
S'camera'
p2132
sg8
I480819537
ssS'0000000919'
p2133
(dp2134
g3
g4
sg5
I1366496781
sg6
S'camera'
p2135
sg8
I401045742
ssS'0000000194'
p2136
(dp2137
g3
g4
sg5
I1366496766
sg6
S'camera'
p2138
sg8
I900502673
ssS'0000000195'
p2139
(dp2140
g3
g4
sg5
I1366496766
sg6
S'camera'
p2141
sg8
I920503410
ssS'0000000196'
p2142
(dp2143
g3
g4
sg5
I1366496766
sg6
S'camera'
p2144
sg8
I940504104
ssS'0000000197'
p2145
(dp2146
g3
g4
sg5
I1366496766
sg6
S'camera'
p2147
sg8
I960504839
ssS'0000000190'
p2148
(dp2149
g3
g4
sg5
I1366496766
sg6
S'camera'
p2150
sg8
I820499728
ssS'0000000191'
p2151
(dp2152
g3
g4
sg5
I1366496766
sg6
S'camera'
p2153
sg8
I840500492
ssS'0000000219'
p2154
(dp2155
g3
g4
sg5
I1366496767
sg6
S'camera'
p2156
sg8
I400520894
ssS'0000000218'
p2157
(dp2158
g3
g4
sg5
I1366496767
sg6
S'camera'
p2159
sg8
I380520171
ssS'0000000217'
p2160
(dp2161
g3
g4
sg5
I1366496767
sg6
S'camera'
p2162
sg8
I360519448
ssS'0000000216'
p2163
(dp2164
g3
g4
sg5
I1366496767
sg6
S'camera'
p2165
sg8
I340518718
ssS'0000000215'
p2166
(dp2167
g3
g4
sg5
I1366496767
sg6
S'camera'
p2168
sg8
I320517983
ssS'0000000214'
p2169
(dp2170
g3
g4
sg5
I1366496767
sg6
S'camera'
p2171
sg8
I300517264
ssS'0000000198'
p2172
(dp2173
g3
g4
sg5
I1366496766
sg6
S'camera'
p2174
sg8
I980505564
ssS'0000000199'
p2175
(dp2176
g3
g4
sg5
I1366496767
sg6
S'camera'
p2177
sg8
I506285
ssS'0000000211'
p2178
(dp2179
g3
g4
sg5
I1366496767
sg6
S'camera'
p2180
sg8
I240515093
ssS'0000000210'
p2181
(dp2182
g3
g4
sg5
I1366496767
sg6
S'camera'
p2183
sg8
I220514338
ssS'0000001229'
p2184
(dp2185
g3
g4
sg5
I1366496787
sg6
S'camera'
p2186
sg8
I601280311
ssS'0000000613'
p2187
(dp2188
g3
g4
sg5
I1366496775
sg6
S'camera'
p2189
sg8
I280812260
ssS'0000001258'
p2190
(dp2191
g3
g4
sg5
I1366496788
sg6
S'camera'
p2192
sg8
I181302379
ssS'0000000612'
p2193
(dp2194
g3
g4
sg5
I1366496775
sg6
S'camera'
p2195
sg8
I260811525
ssS'0000001221'
p2196
(dp2197
g3
g4
sg5
I1366496787
sg6
S'camera'
p2198
sg8
I441274266
ssS'0000001220'
p2199
(dp2200
g3
g4
sg5
I1366496787
sg6
S'camera'
p2201
sg8
I421273498
ssS'0000001100'
p2202
(dp2203
g3
g4
sg5
I1366496785
sg6
S'camera'
p2204
sg8
I21182037
ssS'0000001222'
p2205
(dp2206
g3
g4
sg5
I1366496787
sg6
S'camera'
p2207
sg8
I461275023
ssS'0000001225'
p2208
(dp2209
g3
g4
sg5
I1366496787
sg6
S'camera'
p2210
sg8
I521277323
ssS'0000000758'
p2211
(dp2212
g3
g4
sg5
I1366496778
sg6
S'camera'
p2213
sg8
I180922726
ssS'0000001227'
p2214
(dp2215
g3
g4
sg5
I1366496787
sg6
S'camera'
p2216
sg8
I561278831
ssS'0000000906'
p2217
(dp2218
g3
g4
sg5
I1366496781
sg6
S'camera'
p2219
sg8
I141035922
ssS'0000000161'
p2220
(dp2221
g3
g4
sg5
I1366496766
sg6
S'camera'
p2222
sg8
I240478741
ssS'0000000698'
p2223
(dp2224
g3
g4
sg5
I1366496776
sg6
S'camera'
p2225
sg8
I980876684
ssS'0000001260'
p2226
(dp2227
g3
g4
sg5
I1366496788
sg6
S'camera'
p2228
sg8
I221303893
ssS'0000000693'
p2229
(dp2230
g3
g4
sg5
I1366496776
sg6
S'camera'
p2231
sg8
I880872898
ssS'0000000692'
p2232
(dp2233
g3
g4
sg5
I1366496776
sg6
S'camera'
p2234
sg8
I860872118
ssS'0000000691'
p2235
(dp2236
g3
g4
sg5
I1366496776
sg6
S'camera'
p2237
sg8
I840871342
ssS'0000000690'
p2238
(dp2239
g3
g4
sg5
I1366496776
sg6
S'camera'
p2240
sg8
I820870557
ssS'0000000697'
p2241
(dp2242
g3
g4
sg5
I1366496776
sg6
S'camera'
p2243
sg8
I960875922
ssS'0000000390'
p2244
(dp2245
g3
g4
sg5
I1366496770
sg6
S'camera'
p2246
sg8
I820647468
ssS'0000000695'
p2247
(dp2248
g3
g4
sg5
I1366496776
sg6
S'camera'
p2249
sg8
I920874412
ssS'0000000616'
p2250
(dp2251
g3
g4
sg5
I1366496775
sg6
S'camera'
p2252
sg8
I340814452
ssS'0000001259'
p2253
(dp2254
g3
g4
sg5
I1366496788
sg6
S'camera'
p2255
sg8
I201303127
ssS'0000000391'
p2256
(dp2257
g3
g4
sg5
I1366496770
sg6
S'camera'
p2258
sg8
I840648268
ssS'0000001289'
p2259
(dp2260
g3
g4
sg5
I1366496788
sg6
S'camera'
p2261
sg8
I801325761
ssS'0000000649'
p2262
(dp2263
g3
g4
sg5
I1366496776
sg6
S'camera'
p2264
sg8
I839060
ssS'0000001033'
p2265
(dp2266
g3
g4
sg5
I1366496783
sg6
S'camera'
p2267
sg8
I681131673
ssS'0000000068'
p2268
(dp2269
g3
g4
sg5
I1366496764
sg6
S'camera'
p2270
sg8
I380411082
ssS'0000000069'
p2271
(dp2272
g3
g4
sg5
I1366496764
sg6
S'camera'
p2273
sg8
I400411798
ssS'0000001113'
p2274
(dp2275
g3
g4
sg5
I1366496785
sg6
S'camera'
p2276
sg8
I281191959
ssS'0000000753'
p2277
(dp2278
g3
g4
sg5
I1366496778
sg6
S'camera'
p2279
sg8
I80918926
ssS'0000000060'
p2280
(dp2281
g3
g4
sg5
I1366496764
sg6
S'camera'
p2282
sg8
I220405266
ssS'0000000061'
p2283
(dp2284
g3
g4
sg5
I1366496764
sg6
S'camera'
p2285
sg8
I240405994
ssS'0000000062'
p2286
(dp2287
g3
g4
sg5
I1366496764
sg6
S'camera'
p2288
sg8
I260406728
ssS'0000000063'
p2289
(dp2290
g3
g4
sg5
I1366496764
sg6
S'camera'
p2291
sg8
I280407451
ssS'0000000064'
p2292
(dp2293
g3
g4
sg5
I1366496764
sg6
S'camera'
p2294
sg8
I300408179
ssS'0000000065'
p2295
(dp2296
g3
g4
sg5
I1366496764
sg6
S'camera'
p2297
sg8
I320408895
ssS'0000000066'
p2298
(dp2299
g3
g4
sg5
I1366496764
sg6
S'camera'
p2300
sg8
I340409620
ssS'0000000067'
p2301
(dp2302
g3
g4
sg5
I1366496764
sg6
S'camera'
p2303
sg8
I360410361
ssS'0000000103'
p2304
(dp2305
g3
g4
sg5
I1366496765
sg6
S'camera'
p2306
sg8
I80436579
ssS'0000000102'
p2307
(dp2308
g3
g4
sg5
I1366496765
sg6
S'camera'
p2309
sg8
I60435859
ssS'0000000101'
p2310
(dp2311
g3
g4
sg5
I1366496765
sg6
S'camera'
p2312
sg8
I40435136
ssS'0000000100'
p2313
(dp2314
g3
g4
sg5
I1366496765
sg6
S'camera'
p2315
sg8
I20434420
ssS'0000000107'
p2316
(dp2317
g3
g4
sg5
I1366496765
sg6
S'camera'
p2318
sg8
I160439460
ssS'0000000106'
p2319
(dp2320
g3
g4
sg5
I1366496765
sg6
S'camera'
p2321
sg8
I140438753
ssS'0000000105'
p2322
(dp2323
g3
g4
sg5
I1366496765
sg6
S'camera'
p2324
sg8
I120438023
ssS'0000000104'
p2325
(dp2326
g3
g4
sg5
I1366496765
sg6
S'camera'
p2327
sg8
I100437300
ssS'0000000262'
p2328
(dp2329
g3
g4
sg5
I1366496768
sg6
S'camera'
p2330
sg8
I260552321
ssS'0000000263'
p2331
(dp2332
g3
g4
sg5
I1366496768
sg6
S'camera'
p2333
sg8
I280553057
ssS'0000000109'
p2334
(dp2335
g3
g4
sg5
I1366496765
sg6
S'camera'
p2336
sg8
I200440895
ssS'0000000261'
p2337
(dp2338
g3
g4
sg5
I1366496768
sg6
S'camera'
p2339
sg8
I240551587
ssS'0000000266'
p2340
(dp2341
g3
g4
sg5
I1366496768
sg6
S'camera'
p2342
sg8
I340555229
ssS'0000000267'
p2343
(dp2344
g3
g4
sg5
I1366496768
sg6
S'camera'
p2345
sg8
I360555956
ssS'0000000264'
p2346
(dp2347
g3
g4
sg5
I1366496768
sg6
S'camera'
p2348
sg8
I300553779
ssS'0000000265'
p2349
(dp2350
g3
g4
sg5
I1366496768
sg6
S'camera'
p2351
sg8
I320554499
ssS'0000001112'
p2352
(dp2353
g3
g4
sg5
I1366496785
sg6
S'camera'
p2354
sg8
I261191218
ssS'0000000953'
p2355
(dp2356
g3
g4
sg5
I1366496782
sg6
S'camera'
p2357
sg8
I81071307
ssS'0000000754'
p2358
(dp2359
g3
g4
sg5
I1366496778
sg6
S'camera'
p2360
sg8
I100919670
ssS'0000001091'
p2361
(dp2362
g3
g4
sg5
I1366496784
sg6
S'camera'
p2363
sg8
I841175181
ssS'0000001022'
p2364
(dp2365
g3
g4
sg5
I1366496783
sg6
S'camera'
p2366
sg8
I461123635
ssS'0000000755'
p2367
(dp2368
g3
g4
sg5
I1366496778
sg6
S'camera'
p2369
sg8
I120920421
ssS'0000000728'
p2370
(dp2371
g3
g4
sg5
I1366496777
sg6
S'camera'
p2372
sg8
I580899723
ssS'0000001286'
p2373
(dp2374
g3
g4
sg5
I1366496788
sg6
S'camera'
p2375
sg8
I741323556
ssS'0000001108'
p2376
(dp2377
g3
g4
sg5
I1366496785
sg6
S'camera'
p2378
sg8
I181188123
ssS'0000001278'
p2379
(dp2380
g3
g4
sg5
I1366496788
sg6
S'camera'
p2381
sg8
I581317495
ssS'0000001049'
p2382
(dp2383
g3
g4
sg5
I1366496784
sg6
S'camera'
p2384
sg8
I1143376
ssS'0000001048'
p2385
(dp2386
g3
g4
sg5
I1366496783
sg6
S'camera'
p2387
sg8
I981142648
ssS'0000001045'
p2388
(dp2389
g3
g4
sg5
I1366496783
sg6
S'camera'
p2390
sg8
I921140452
ssS'0000001044'
p2391
(dp2392
g3
g4
sg5
I1366496783
sg6
S'camera'
p2393
sg8
I901139731
ssS'0000001047'
p2394
(dp2395
g3
g4
sg5
I1366496783
sg6
S'camera'
p2396
sg8
I961141918
ssS'0000001046'
p2397
(dp2398
g3
g4
sg5
I1366496783
sg6
S'camera'
p2399
sg8
I941141189
ssS'0000001041'
p2400
(dp2401
g3
g4
sg5
I1366496783
sg6
S'camera'
p2402
sg8
I841137554
ssS'0000001040'
p2403
(dp2404
g3
g4
sg5
I1366496783
sg6
S'camera'
p2405
sg8
I821136828
ssS'0000001043'
p2406
(dp2407
g3
g4
sg5
I1366496783
sg6
S'camera'
p2408
sg8
I881138998
ssS'0000001042'
p2409
(dp2410
g3
g4
sg5
I1366496783
sg6
S'camera'
p2411
sg8
I861138271
ssS'0000000759'
p2412
(dp2413
g3
g4
sg5
I1366496778
sg6
S'camera'
p2414
sg8
I200923495
ssS'0000001239'
p2415
(dp2416
g3
g4
sg5
I1366496787
sg6
S'camera'
p2417
sg8
I801287882
ssS'0000000915'
p2418
(dp2419
g3
g4
sg5
I1366496781
sg6
S'camera'
p2420
sg8
I321042697
ssS'0000001251'
p2421
(dp2422
g3
g4
sg5
I1366496788
sg6
S'camera'
p2423
sg8
I41297033
ssS'0000000959'
p2424
(dp2425
g3
g4
sg5
I1366496782
sg6
S'camera'
p2426
sg8
I201075853
ssS'0000001182'
p2427
(dp2428
g3
g4
sg5
I1366496786
sg6
S'camera'
p2429
sg8
I661244477
ssS'0000001279'
p2430
(dp2431
g3
g4
sg5
I1366496788
sg6
S'camera'
p2432
sg8
I601318235
ssS'0000000995'
p2433
(dp2434
g3
g4
sg5
I1366496782
sg6
S'camera'
p2435
sg8
I921103026
ssS'0000001148'
p2436
(dp2437
g3
g4
sg5
I1366496785
sg6
S'camera'
p2438
sg8
I981218579
ssS'0000000828'
p2439
(dp2440
g3
g4
sg5
I1366496779
sg6
S'camera'
p2441
sg8
I580976150
ssS'0000000888'
p2442
(dp2443
g3
g4
sg5
I1366496780
sg6
S'camera'
p2444
sg8
I781022292
ssS'0000000889'
p2445
(dp2446
g3
g4
sg5
I1366496780
sg6
S'camera'
p2447
sg8
I801023041
ssS'0000001233'
p2448
(dp2449
g3
g4
sg5
I1366496787
sg6
S'camera'
p2450
sg8
I681283324
ssS'0000000367'
p2451
(dp2452
g3
g4
sg5
I1366496770
sg6
S'camera'
p2453
sg8
I360630035
ssS'0000000366'
p2454
(dp2455
g3
g4
sg5
I1366496770
sg6
S'camera'
p2456
sg8
I340629263
ssS'0000000365'
p2457
(dp2458
g3
g4
sg5
I1366496770
sg6
S'camera'
p2459
sg8
I320628549
ssS'0000000364'
p2460
(dp2461
g3
g4
sg5
I1366496770
sg6
S'camera'
p2462
sg8
I300627774
ssS'0000000363'
p2463
(dp2464
g3
g4
sg5
I1366496770
sg6
S'camera'
p2465
sg8
I280626985
ssS'0000000362'
p2466
(dp2467
g3
g4
sg5
I1366496770
sg6
S'camera'
p2468
sg8
I260626207
ssS'0000000361'
p2469
(dp2470
g3
g4
sg5
I1366496770
sg6
S'camera'
p2471
sg8
I240625465
ssS'0000000360'
p2472
(dp2473
g3
g4
sg5
I1366496770
sg6
S'camera'
p2474
sg8
I220624755
ssS'0000000406'
p2475
(dp2476
g3
g4
sg5
I1366496771
sg6
S'camera'
p2477
sg8
I140659752
ssS'0000000407'
p2478
(dp2479
g3
g4
sg5
I1366496771
sg6
S'camera'
p2480
sg8
I160660528
ssS'0000000404'
p2481
(dp2482
g3
g4
sg5
I1366496771
sg6
S'camera'
p2483
sg8
I100658193
ssS'0000000405'
p2484
(dp2485
g3
g4
sg5
I1366496771
sg6
S'camera'
p2486
sg8
I120658985
ssS'0000000402'
p2487
(dp2488
g3
g4
sg5
I1366496771
sg6
S'camera'
p2489
sg8
I60656669
ssS'0000000403'
p2490
(dp2491
g3
g4
sg5
I1366496771
sg6
S'camera'
p2492
sg8
I80657443
ssS'0000000369'
p2493
(dp2494
g3
g4
sg5
I1366496770
sg6
S'camera'
p2495
sg8
I400631532
ssS'0000000368'
p2496
(dp2497
g3
g4
sg5
I1366496770
sg6
S'camera'
p2498
sg8
I380630809
ssS'0000000561'
p2499
(dp2500
g3
g4
sg5
I1366496774
sg6
S'camera'
p2501
sg8
I240774352
ssS'0000000560'
p2502
(dp2503
g3
g4
sg5
I1366496774
sg6
S'camera'
p2504
sg8
I220773629
ssS'0000000563'
p2505
(dp2506
g3
g4
sg5
I1366496774
sg6
S'camera'
p2507
sg8
I280775810
ssS'0000000562'
p2508
(dp2509
g3
g4
sg5
I1366496774
sg6
S'camera'
p2510
sg8
I260775080
ssS'0000000565'
p2511
(dp2512
g3
g4
sg5
I1366496774
sg6
S'camera'
p2513
sg8
I320777234
ssS'0000000564'
p2514
(dp2515
g3
g4
sg5
I1366496774
sg6
S'camera'
p2516
sg8
I300776510
ssS'0000000567'
p2517
(dp2518
g3
g4
sg5
I1366496774
sg6
S'camera'
p2519
sg8
I360778690
ssS'0000000566'
p2520
(dp2521
g3
g4
sg5
I1366496774
sg6
S'camera'
p2522
sg8
I340777963
ssS'0000000479'
p2523
(dp2524
g3
g4
sg5
I1366496772
sg6
S'camera'
p2525
sg8
I600714358
ssS'0000000568'
p2526
(dp2527
g3
g4
sg5
I1366496774
sg6
S'camera'
p2528
sg8
I380779415
ssS'0000001235'
p2529
(dp2530
g3
g4
sg5
I1366496787
sg6
S'camera'
p2531
sg8
I721284856
ssS'0000000880'
p2532
(dp2533
g3
g4
sg5
I1366496780
sg6
S'camera'
p2534
sg8
I621016206
ssS'0000000619'
p2535
(dp2536
g3
g4
sg5
I1366496775
sg6
S'camera'
p2537
sg8
I400816620
ssS'0000000881'
p2538
(dp2539
g3
g4
sg5
I1366496780
sg6
S'camera'
p2540
sg8
I641016969
ssS'0000000591'
p2541
(dp2542
g3
g4
sg5
I1366496774
sg6
S'camera'
p2543
sg8
I840796159
ssS'0000001121'
p2544
(dp2545
g3
g4
sg5
I1366496785
sg6
S'camera'
p2546
sg8
I441198059
ssS'0000000969'
p2547
(dp2548
g3
g4
sg5
I1366496782
sg6
S'camera'
p2549
sg8
I401083447
ssS'0000000968'
p2550
(dp2551
g3
g4
sg5
I1366496782
sg6
S'camera'
p2552
sg8
I381082726
ssS'0000000478'
p2553
(dp2554
g3
g4
sg5
I1366496772
sg6
S'camera'
p2555
sg8
I580713532
ssS'0000000965'
p2556
(dp2557
g3
g4
sg5
I1366496782
sg6
S'camera'
p2558
sg8
I321080425
ssS'0000000964'
p2559
(dp2560
g3
g4
sg5
I1366496782
sg6
S'camera'
p2561
sg8
I301079653
ssS'0000000967'
p2562
(dp2563
g3
g4
sg5
I1366496782
sg6
S'camera'
p2564
sg8
I361081965
ssS'0000000966'
p2565
(dp2566
g3
g4
sg5
I1366496782
sg6
S'camera'
p2567
sg8
I341081191
ssS'0000000961'
p2568
(dp2569
g3
g4
sg5
I1366496782
sg6
S'camera'
p2570
sg8
I241077357
ssS'0000000960'
p2571
(dp2572
g3
g4
sg5
I1366496782
sg6
S'camera'
p2573
sg8
I221076614
ssS'0000000963'
p2574
(dp2575
g3
g4
sg5
I1366496782
sg6
S'camera'
p2576
sg8
I281078880
ssS'0000000962'
p2577
(dp2578
g3
g4
sg5
I1366496782
sg6
S'camera'
p2579
sg8
I261078095
ssS'0000000618'
p2580
(dp2581
g3
g4
sg5
I1366496775
sg6
S'camera'
p2582
sg8
I380815910
ssS'0000001177'
p2583
(dp2584
g3
g4
sg5
I1366496786
sg6
S'camera'
p2585
sg8
I561240749
ssS'0000001168'
p2586
(dp2587
g3
g4
sg5
I1366496786
sg6
S'camera'
p2588
sg8
I381233887
ssS'0000000312'
p2589
(dp2590
g3
g4
sg5
I1366496769
sg6
S'camera'
p2591
sg8
I260588800
ssS'0000000313'
p2592
(dp2593
g3
g4
sg5
I1366496769
sg6
S'camera'
p2594
sg8
I280589538
ssS'0000000310'
p2595
(dp2596
g3
g4
sg5
I1366496769
sg6
S'camera'
p2597
sg8
I220587331
ssS'0000000311'
p2598
(dp2599
g3
g4
sg5
I1366496769
sg6
S'camera'
p2600
sg8
I240588075
ssS'0000000316'
p2601
(dp2602
g3
g4
sg5
I1366496769
sg6
S'camera'
p2603
sg8
I340591750
ssS'0000000317'
p2604
(dp2605
g3
g4
sg5
I1366496769
sg6
S'camera'
p2606
sg8
I360592479
ssS'0000000314'
p2607
(dp2608
g3
g4
sg5
I1366496769
sg6
S'camera'
p2609
sg8
I300590263
ssS'0000000315'
p2610
(dp2611
g3
g4
sg5
I1366496769
sg6
S'camera'
p2612
sg8
I320590998
ssS'0000000318'
p2613
(dp2614
g3
g4
sg5
I1366496769
sg6
S'camera'
p2615
sg8
I380593195
ssS'0000000319'
p2616
(dp2617
g3
g4
sg5
I1366496769
sg6
S'camera'
p2618
sg8
I400593918
ssS'0000000709'
p2619
(dp2620
g3
g4
sg5
I1366496777
sg6
S'camera'
p2621
sg8
I200885259
ssS'0000000708'
p2622
(dp2623
g3
g4
sg5
I1366496777
sg6
S'camera'
p2624
sg8
I180884507
ssS'0000000495'
p2625
(dp2626
g3
g4
sg5
I1366496772
sg6
S'camera'
p2627
sg8
I920726129
ssS'0000000494'
p2628
(dp2629
g3
g4
sg5
I1366496772
sg6
S'camera'
p2630
sg8
I900725400
ssS'0000000497'
p2631
(dp2632
g3
g4
sg5
I1366496772
sg6
S'camera'
p2633
sg8
I960727629
ssS'0000000496'
p2634
(dp2635
g3
g4
sg5
I1366496772
sg6
S'camera'
p2636
sg8
I940726899
ssS'0000000491'
p2637
(dp2638
g3
g4
sg5
I1366496772
sg6
S'camera'
p2639
sg8
I840723216
ssS'0000000490'
p2640
(dp2641
g3
g4
sg5
I1366496772
sg6
S'camera'
p2642
sg8
I820722469
ssS'0000000493'
p2643
(dp2644
g3
g4
sg5
I1366496772
sg6
S'camera'
p2645
sg8
I880724684
ssS'0000000492'
p2646
(dp2647
g3
g4
sg5
I1366496772
sg6
S'camera'
p2648
sg8
I860723945
ssS'0000001144'
p2649
(dp2650
g3
g4
sg5
I1366496785
sg6
S'camera'
p2651
sg8
I901215504
ssS'0000001145'
p2652
(dp2653
g3
g4
sg5
I1366496785
sg6
S'camera'
p2654
sg8
I921216240
ssS'0000001146'
p2655
(dp2656
g3
g4
sg5
I1366496785
sg6
S'camera'
p2657
sg8
I941217013
ssS'0000000930'
p2658
(dp2659
g3
g4
sg5
I1366496781
sg6
S'camera'
p2660
sg8
I621054075
ssS'0000000499'
p2661
(dp2662
g3
g4
sg5
I1366496773
sg6
S'camera'
p2663
sg8
I729088
ssS'0000000498'
p2664
(dp2665
g3
g4
sg5
I1366496772
sg6
S'camera'
p2666
sg8
I980728366
ssS'0000001142'
p2667
(dp2668
g3
g4
sg5
I1366496785
sg6
S'camera'
p2669
sg8
I861213976
ssS'0000001143'
p2670
(dp2671
g3
g4
sg5
I1366496785
sg6
S'camera'
p2672
sg8
I881214727
ssS'0000001037'
p2673
(dp2674
g3
g4
sg5
I1366496783
sg6
S'camera'
p2675
sg8
I761134599
ssS'0000000798'
p2676
(dp2677
g3
g4
sg5
I1366496778
sg6
S'camera'
p2678
sg8
I980953344
ssS'0000000799'
p2679
(dp2680
g3
g4
sg5
I1366496779
sg6
S'camera'
p2681
sg8
I954070
ssS'0000000796'
p2682
(dp2683
g3
g4
sg5
I1366496778
sg6
S'camera'
p2684
sg8
I940951788
ssS'0000000797'
p2685
(dp2686
g3
g4
sg5
I1366496778
sg6
S'camera'
p2687
sg8
I960952564
ssS'0000000794'
p2688
(dp2689
g3
g4
sg5
I1366496778
sg6
S'camera'
p2690
sg8
I900950321
ssS'0000000795'
p2691
(dp2692
g3
g4
sg5
I1366496778
sg6
S'camera'
p2693
sg8
I920951060
ssS'0000000792'
p2694
(dp2695
g3
g4
sg5
I1366496778
sg6
S'camera'
p2696
sg8
I860948776
ssS'0000000793'
p2697
(dp2698
g3
g4
sg5
I1366496778
sg6
S'camera'
p2699
sg8
I880949553
ssS'0000000790'
p2700
(dp2701
g3
g4
sg5
I1366496778
sg6
S'camera'
p2702
sg8
I820947184
ssS'0000000791'
p2703
(dp2704
g3
g4
sg5
I1366496778
sg6
S'camera'
p2705
sg8
I840947990
ssS'0000001161'
p2706
(dp2707
g3
g4
sg5
I1366496786
sg6
S'camera'
p2708
sg8
I241228530
ssS'0000000639'
p2709
(dp2710
g3
g4
sg5
I1366496775
sg6
S'camera'
p2711
sg8
I800831447
ssS'0000000638'
p2712
(dp2713
g3
g4
sg5
I1366496775
sg6
S'camera'
p2714
sg8
I780830678
ssS'0000000149'
p2715
(dp2716
g3
g4
sg5
I1366496766
sg6
S'camera'
p2717
sg8
I469970
ssS'0000000148'
p2718
(dp2719
g3
g4
sg5
I1366496765
sg6
S'camera'
p2720
sg8
I980469253
ssS'0000000147'
p2721
(dp2722
g3
g4
sg5
I1366496765
sg6
S'camera'
p2723
sg8
I960468519
ssS'0000000146'
p2724
(dp2725
g3
g4
sg5
I1366496765
sg6
S'camera'
p2726
sg8
I940467796
ssS'0000000145'
p2727
(dp2728
g3
g4
sg5
I1366496765
sg6
S'camera'
p2729
sg8
I920467068
ssS'0000000144'
p2730
(dp2731
g3
g4
sg5
I1366496765
sg6
S'camera'
p2732
sg8
I900466337
ssS'0000000143'
p2733
(dp2734
g3
g4
sg5
I1366496765
sg6
S'camera'
p2735
sg8
I880465618
ssS'0000000142'
p2736
(dp2737
g3
g4
sg5
I1366496765
sg6
S'camera'
p2738
sg8
I860464898
ssS'0000000141'
p2739
(dp2740
g3
g4
sg5
I1366496765
sg6
S'camera'
p2741
sg8
I840464190
ssS'0000000140'
p2742
(dp2743
g3
g4
sg5
I1366496765
sg6
S'camera'
p2744
sg8
I820463472
ssS'0000000226'
p2745
(dp2746
g3
g4
sg5
I1366496767
sg6
S'camera'
p2747
sg8
I540526006
ssS'0000000227'
p2748
(dp2749
g3
g4
sg5
I1366496767
sg6
S'camera'
p2750
sg8
I560526733
ssS'0000000224'
p2751
(dp2752
g3
g4
sg5
I1366496767
sg6
S'camera'
p2753
sg8
I500524546
ssS'0000000225'
p2754
(dp2755
g3
g4
sg5
I1366496767
sg6
S'camera'
p2756
sg8
I520525265
ssS'0000000222'
p2757
(dp2758
g3
g4
sg5
I1366496767
sg6
S'camera'
p2759
sg8
I460523097
ssS'0000000223'
p2760
(dp2761
g3
g4
sg5
I1366496767
sg6
S'camera'
p2762
sg8
I480523826
ssS'0000000220'
p2763
(dp2764
g3
g4
sg5
I1366496767
sg6
S'camera'
p2765
sg8
I420521636
ssS'0000000221'
p2766
(dp2767
g3
g4
sg5
I1366496767
sg6
S'camera'
p2768
sg8
I440522372
ssS'0000000381'
p2769
(dp2770
g3
g4
sg5
I1366496770
sg6
S'camera'
p2771
sg8
I640640686
ssS'0000000380'
p2772
(dp2773
g3
g4
sg5
I1366496770
sg6
S'camera'
p2774
sg8
I620639918
ssS'0000000383'
p2775
(dp2776
g3
g4
sg5
I1366496770
sg6
S'camera'
p2777
sg8
I680642224
ssS'0000000359'
p2778
(dp2779
g3
g4
sg5
I1366496770
sg6
S'camera'
p2780
sg8
I200623980
ssS'0000000385'
p2781
(dp2782
g3
g4
sg5
I1366496770
sg6
S'camera'
p2783
sg8
I720643695
ssS'0000000384'
p2784
(dp2785
g3
g4
sg5
I1366496770
sg6
S'camera'
p2786
sg8
I700642970
ssS'0000000228'
p2787
(dp2788
g3
g4
sg5
I1366496767
sg6
S'camera'
p2789
sg8
I580527454
ssS'0000000229'
p2790
(dp2791
g3
g4
sg5
I1366496767
sg6
S'camera'
p2792
sg8
I600528194
ssS'0000000978'
p2793
(dp2794
g3
g4
sg5
I1366496782
sg6
S'camera'
p2795
sg8
I581090061
ssS'0000001109'
p2796
(dp2797
g3
g4
sg5
I1366496785
sg6
S'camera'
p2798
sg8
I201188892
ssS'0000001269'
p2799
(dp2800
g3
g4
sg5
I1366496788
sg6
S'camera'
p2801
sg8
I401310686
ssS'0000001267'
p2802
(dp2803
g3
g4
sg5
I1366496788
sg6
S'camera'
p2804
sg8
I361309167
ssS'0000001257'
p2805
(dp2806
g3
g4
sg5
I1366496788
sg6
S'camera'
p2807
sg8
I161301616
ssS'0000000751'
p2808
(dp2809
g3
g4
sg5
I1366496778
sg6
S'camera'
p2810
sg8
I40917416
ssS'0000000737'
p2811
(dp2812
g3
g4
sg5
I1366496777
sg6
S'camera'
p2813
sg8
I760906581
ssS'0000000898'
p2814
(dp2815
g3
g4
sg5
I1366496780
sg6
S'camera'
p2816
sg8
I981029929
ssS'0000001201'
p2817
(dp2818
g3
g4
sg5
I1366496787
sg6
S'camera'
p2819
sg8
I41259002
ssS'0000001254'
p2820
(dp2821
g3
g4
sg5
I1366496788
sg6
S'camera'
p2822
sg8
I101299333
ssS'0000001151'
p2823
(dp2824
g3
g4
sg5
I1366496786
sg6
S'camera'
p2825
sg8
I41220881
ssS'0000001208'
p2826
(dp2827
g3
g4
sg5
I1366496787
sg6
S'camera'
p2828
sg8
I181264331
ssS'0000000979'
p2829
(dp2830
g3
g4
sg5
I1366496782
sg6
S'camera'
p2831
sg8
I601090813
ssS'0000001150'
p2832
(dp2833
g3
g4
sg5
I1366496786
sg6
S'camera'
p2834
sg8
I21220106
ssS'0000000350'
p2835
(dp2836
g3
g4
sg5
I1366496770
sg6
S'camera'
p2837
sg8
I20617097
ssS'0000001243'
p2838
(dp2839
g3
g4
sg5
I1366496787
sg6
S'camera'
p2840
sg8
I881290949
ssS'0000001197'
p2841
(dp2842
g3
g4
sg5
I1366496786
sg6
S'camera'
p2843
sg8
I961255945
ssS'0000000351'
p2844
(dp2845
g3
g4
sg5
I1366496770
sg6
S'camera'
p2846
sg8
I40617865
ssS'0000000756'
p2847
(dp2848
g3
g4
sg5
I1366496778
sg6
S'camera'
p2849
sg8
I140921180
ssS'0000000033'
p2850
(dp2851
g3
g4
sg5
I1366496763
sg6
S'camera'
p2852
sg8
I680385723
ssS'0000000032'
p2853
(dp2854
g3
g4
sg5
I1366496763
sg6
S'camera'
p2855
sg8
I660384995
ssS'0000000138'
p2856
(dp2857
g3
g4
sg5
I1366496765
sg6
S'camera'
p2858
sg8
I780462020
ssS'0000000139'
p2859
(dp2860
g3
g4
sg5
I1366496765
sg6
S'camera'
p2861
sg8
I800462746
ssS'0000000037'
p2862
(dp2863
g3
g4
sg5
I1366496763
sg6
S'camera'
p2864
sg8
I760388627
ssS'0000000036'
p2865
(dp2866
g3
g4
sg5
I1366496763
sg6
S'camera'
p2867
sg8
I740387907
ssS'0000000035'
p2868
(dp2869
g3
g4
sg5
I1366496763
sg6
S'camera'
p2870
sg8
I720387188
ssS'0000000034'
p2871
(dp2872
g3
g4
sg5
I1366496763
sg6
S'camera'
p2873
sg8
I700386460
ssS'0000000132'
p2874
(dp2875
g3
g4
sg5
I1366496765
sg6
S'camera'
p2876
sg8
I660457634
ssS'0000000133'
p2877
(dp2878
g3
g4
sg5
I1366496765
sg6
S'camera'
p2879
sg8
I680458354
ssS'0000000130'
p2880
(dp2881
g3
g4
sg5
I1366496765
sg6
S'camera'
p2882
sg8
I620456164
ssS'0000000131'
p2883
(dp2884
g3
g4
sg5
I1366496765
sg6
S'camera'
p2885
sg8
I640456900
ssS'0000000136'
p2886
(dp2887
g3
g4
sg5
I1366496765
sg6
S'camera'
p2888
sg8
I740460553
ssS'0000000137'
p2889
(dp2890
g3
g4
sg5
I1366496765
sg6
S'camera'
p2891
sg8
I760461290
ssS'0000000134'
p2892
(dp2893
g3
g4
sg5
I1366496765
sg6
S'camera'
p2894
sg8
I700459088
ssS'0000000135'
p2895
(dp2896
g3
g4
sg5
I1366496765
sg6
S'camera'
p2897
sg8
I720459812
ssS'0000000980'
p2898
(dp2899
g3
g4
sg5
I1366496782
sg6
S'camera'
p2900
sg8
I621091566
ssS'0000001093'
p2901
(dp2902
g3
g4
sg5
I1366496784
sg6
S'camera'
p2903
sg8
I881176737
ssS'0000001196'
p2904
(dp2905
g3
g4
sg5
I1366496786
sg6
S'camera'
p2906
sg8
I941255169
ssS'0000000987'
p2907
(dp2908
g3
g4
sg5
I1366496782
sg6
S'camera'
p2909
sg8
I761096889
ssS'0000000757'
p2910
(dp2911
g3
g4
sg5
I1366496778
sg6
S'camera'
p2912
sg8
I160921956
ssS'0000001159'
p2913
(dp2914
g3
g4
sg5
I1366496786
sg6
S'camera'
p2915
sg8
I201227005
ssS'0000000764'
p2916
(dp2917
g3
g4
sg5
I1366496778
sg6
S'camera'
p2918
sg8
I300927382
ssS'0000000454'
p2919
(dp2920
g3
g4
sg5
I1366496772
sg6
S'camera'
p2921
sg8
I100695917
ssS'0000000914'
p2922
(dp2923
g3
g4
sg5
I1366496781
sg6
S'camera'
p2924
sg8
I301041930
ssS'0000000811'
p2925
(dp2926
g3
g4
sg5
I1366496779
sg6
S'camera'
p2927
sg8
I240963230
ssS'0000000916'
p2928
(dp2929
g3
g4
sg5
I1366496781
sg6
S'camera'
p2930
sg8
I341043469
ssS'0000000917'
p2931
(dp2932
g3
g4
sg5
I1366496781
sg6
S'camera'
p2933
sg8
I361044220
ssS'0000000529'
p2934
(dp2935
g3
g4
sg5
I1366496773
sg6
S'camera'
p2936
sg8
I600751022
ssS'0000000528'
p2937
(dp2938
g3
g4
sg5
I1366496773
sg6
S'camera'
p2939
sg8
I580750294
ssS'0000000912'
p2940
(dp2941
g3
g4
sg5
I1366496781
sg6
S'camera'
p2942
sg8
I261040390
ssS'0000000810'
p2943
(dp2944
g3
g4
sg5
I1366496779
sg6
S'camera'
p2945
sg8
I220962460
ssS'0000000525'
p2946
(dp2947
g3
g4
sg5
I1366496773
sg6
S'camera'
p2948
sg8
I520748113
ssS'0000000524'
p2949
(dp2950
g3
g4
sg5
I1366496773
sg6
S'camera'
p2951
sg8
I500747389
ssS'0000000527'
p2952
(dp2953
g3
g4
sg5
I1366496773
sg6
S'camera'
p2954
sg8
I560749566
ssS'0000000526'
p2955
(dp2956
g3
g4
sg5
I1366496773
sg6
S'camera'
p2957
sg8
I540748835
ssS'0000000521'
p2958
(dp2959
g3
g4
sg5
I1366496773
sg6
S'camera'
p2960
sg8
I440745224
ssS'0000000520'
p2961
(dp2962
g3
g4
sg5
I1366496773
sg6
S'camera'
p2963
sg8
I420744497
ssS'0000000523'
p2964
(dp2965
g3
g4
sg5
I1366496773
sg6
S'camera'
p2966
sg8
I480746662
ssS'0000000522'
p2967
(dp2968
g3
g4
sg5
I1366496773
sg6
S'camera'
p2969
sg8
I460745953
ssS'0000001034'
p2970
(dp2971
g3
g4
sg5
I1366496783
sg6
S'camera'
p2972
sg8
I701132395
ssS'0000000590'
p2973
(dp2974
g3
g4
sg5
I1366496774
sg6
S'camera'
p2975
sg8
I820795454
ssS'0000001036'
p2976
(dp2977
g3
g4
sg5
I1366496783
sg6
S'camera'
p2978
sg8
I741133872
ssS'0000000812'
p2979
(dp2980
g3
g4
sg5
I1366496779
sg6
S'camera'
p2981
sg8
I260963987
ssS'0000001030'
p2982
(dp2983
g3
g4
sg5
I1366496783
sg6
S'camera'
p2984
sg8
I621129491
ssS'0000001031'
p2985
(dp2986
g3
g4
sg5
I1366496783
sg6
S'camera'
p2987
sg8
I641130217
ssS'0000001032'
p2988
(dp2989
g3
g4
sg5
I1366496783
sg6
S'camera'
p2990
sg8
I661130948
ssS'0000000458'
p2991
(dp2992
g3
g4
sg5
I1366496772
sg6
S'camera'
p2993
sg8
I180698865
ssS'0000001283'
p2994
(dp2995
g3
g4
sg5
I1366496788
sg6
S'camera'
p2996
sg8
I681321278
ssS'0000000815'
p2997
(dp2998
g3
g4
sg5
I1366496779
sg6
S'camera'
p2999
sg8
I320966300
ssS'0000001095'
p3000
(dp3001
g3
g4
sg5
I1366496784
sg6
S'camera'
p3002
sg8
I921178259
ssS'0000001038'
p3003
(dp3004
g3
g4
sg5
I1366496783
sg6
S'camera'
p3005
sg8
I781135383
ssS'0000000989'
p3006
(dp3007
g3
g4
sg5
I1366496782
sg6
S'camera'
p3008
sg8
I801098430
ssS'0000000814'
p3009
(dp3010
g3
g4
sg5
I1366496779
sg6
S'camera'
p3011
sg8
I300965512
ssS'0000001231'
p3012
(dp3013
g3
g4
sg5
I1366496787
sg6
S'camera'
p3014
sg8
I641281801
ssS'0000000593'
p3015
(dp3016
g3
g4
sg5
I1366496774
sg6
S'camera'
p3017
sg8
I880797617
ssS'0000000408'
p3018
(dp3019
g3
g4
sg5
I1366496771
sg6
S'camera'
p3020
sg8
I180661286
ssS'0000000974'
p3021
(dp3022
g3
g4
sg5
I1366496782
sg6
S'camera'
p3023
sg8
I501087112
ssS'0000000813'
p3024
(dp3025
g3
g4
sg5
I1366496779
sg6
S'camera'
p3026
sg8
I280964742
ssS'0000000409'
p3027
(dp3028
g3
g4
sg5
I1366496771
sg6
S'camera'
p3029
sg8
I200662042
ssS'0000001103'
p3030
(dp3031
g3
g4
sg5
I1366496785
sg6
S'camera'
p3032
sg8
I81184311
ssS'0000001223'
p3033
(dp3034
g3
g4
sg5
I1366496787
sg6
S'camera'
p3035
sg8
I481275799
ssS'0000001105'
p3036
(dp3037
g3
g4
sg5
I1366496785
sg6
S'camera'
p3038
sg8
I121185860
ssS'0000000819'
p3039
(dp3040
g3
g4
sg5
I1366496779
sg6
S'camera'
p3041
sg8
I400969367
ssS'0000001106'
p3042
(dp3043
g3
g4
sg5
I1366496785
sg6
S'camera'
p3044
sg8
I141186604
ssS'0000000818'
p3045
(dp3046
g3
g4
sg5
I1366496779
sg6
S'camera'
p3047
sg8
I380968597
ssS'0000000789'
p3048
(dp3049
g3
g4
sg5
I1366496778
sg6
S'camera'
p3050
sg8
I800946414
ssS'0000000597'
p3051
(dp3052
g3
g4
sg5
I1366496774
sg6
S'camera'
p3053
sg8
I960800549
ssS'0000000297'
p3054
(dp3055
g3
g4
sg5
I1366496768
sg6
S'camera'
p3056
sg8
I960577817
ssS'0000000296'
p3057
(dp3058
g3
g4
sg5
I1366496768
sg6
S'camera'
p3059
sg8
I940577089
ssS'0000000295'
p3060
(dp3061
g3
g4
sg5
I1366496768
sg6
S'camera'
p3062
sg8
I920576349
ssS'0000000294'
p3063
(dp3064
g3
g4
sg5
I1366496768
sg6
S'camera'
p3065
sg8
I900575621
ssS'0000000293'
p3066
(dp3067
g3
g4
sg5
I1366496768
sg6
S'camera'
p3068
sg8
I880574889
ssS'0000000292'
p3069
(dp3070
g3
g4
sg5
I1366496768
sg6
S'camera'
p3071
sg8
I860574164
ssS'0000000291'
p3072
(dp3073
g3
g4
sg5
I1366496768
sg6
S'camera'
p3074
sg8
I840573435
ssS'0000000290'
p3075
(dp3076
g3
g4
sg5
I1366496768
sg6
S'camera'
p3077
sg8
I820572684
ssS'0000000356'
p3078
(dp3079
g3
g4
sg5
I1366496770
sg6
S'camera'
p3080
sg8
I140621677
ssS'0000000357'
p3081
(dp3082
g3
g4
sg5
I1366496770
sg6
S'camera'
p3083
sg8
I160622457
ssS'0000000354'
p3084
(dp3085
g3
g4
sg5
I1366496770
sg6
S'camera'
p3086
sg8
I100620179
ssS'0000000355'
p3087
(dp3088
g3
g4
sg5
I1366496770
sg6
S'camera'
p3089
sg8
I120620942
ssS'0000000352'
p3090
(dp3091
g3
g4
sg5
I1366496770
sg6
S'camera'
p3092
sg8
I60618617
ssS'0000000353'
p3093
(dp3094
g3
g4
sg5
I1366496770
sg6
S'camera'
p3095
sg8
I80619372
ssS'0000000299'
p3096
(dp3097
g3
g4
sg5
I1366496769
sg6
S'camera'
p3098
sg8
I579269
ssS'0000000298'
p3099
(dp3100
g3
g4
sg5
I1366496768
sg6
S'camera'
p3101
sg8
I980578547
ssS'0000000451'
p3102
(dp3103
g3
g4
sg5
I1366496772
sg6
S'camera'
p3104
sg8
I40693721
ssS'0000000450'
p3105
(dp3106
g3
g4
sg5
I1366496772
sg6
S'camera'
p3107
sg8
I20692983
ssS'0000000453'
p3108
(dp3109
g3
g4
sg5
I1366496772
sg6
S'camera'
p3110
sg8
I80695187
ssS'0000000452'
p3111
(dp3112
g3
g4
sg5
I1366496772
sg6
S'camera'
p3113
sg8
I60694456
ssS'0000000455'
p3114
(dp3115
g3
g4
sg5
I1366496772
sg6
S'camera'
p3116
sg8
I120696689
ssS'0000000400'
p3117
(dp3118
g3
g4
sg5
I1366496771
sg6
S'camera'
p3119
sg8
I20655100
ssS'0000000457'
p3120
(dp3121
g3
g4
sg5
I1366496772
sg6
S'camera'
p3122
sg8
I160698143
ssS'0000000456'
p3123
(dp3124
g3
g4
sg5
I1366496772
sg6
S'camera'
p3125
sg8
I140697412
ssS'0000000459'
p3126
(dp3127
g3
g4
sg5
I1366496772
sg6
S'camera'
p3128
sg8
I200699644
ssS'0000000051'
p3129
(dp3130
g3
g4
sg5
I1366496764
sg6
S'camera'
p3131
sg8
I40398737
ssS'0000000592'
p3132
(dp3133
g3
g4
sg5
I1366496774
sg6
S'camera'
p3134
sg8
I860796889
ssS'0000000401'
p3135
(dp3136
g3
g4
sg5
I1366496771
sg6
S'camera'
p3137
sg8
I40655869
ssS'0000000594'
p3138
(dp3139
g3
g4
sg5
I1366496774
sg6
S'camera'
p3140
sg8
I900798350
ssS'0000000595'
p3141
(dp3142
g3
g4
sg5
I1366496774
sg6
S'camera'
p3143
sg8
I920799087
ssS'0000000596'
p3144
(dp3145
g3
g4
sg5
I1366496774
sg6
S'camera'
p3146
sg8
I940799818
ssS'0000000050'
p3147
(dp3148
g3
g4
sg5
I1366496764
sg6
S'camera'
p3149
sg8
I20398024
ssS'0000000931'
p3150
(dp3151
g3
g4
sg5
I1366496781
sg6
S'camera'
p3152
sg8
I641054773
ssS'0000000548'
p3153
(dp3154
g3
g4
sg5
I1366496773
sg6
S'camera'
p3155
sg8
I980764921
ssS'0000000859'
p3156
(dp3157
g3
g4
sg5
I1366496780
sg6
S'camera'
p3158
sg8
I200999909
ssS'0000000858'
p3159
(dp3160
g3
g4
sg5
I1366496780
sg6
S'camera'
p3161
sg8
I180999112
ssS'0000000855'
p3162
(dp3163
g3
g4
sg5
I1366496780
sg6
S'camera'
p3164
sg8
I120996789
ssS'0000000854'
p3165
(dp3166
g3
g4
sg5
I1366496780
sg6
S'camera'
p3167
sg8
I100996018
ssS'0000000857'
p3168
(dp3169
g3
g4
sg5
I1366496780
sg6
S'camera'
p3170
sg8
I160998341
ssS'0000000856'
p3171
(dp3172
g3
g4
sg5
I1366496780
sg6
S'camera'
p3173
sg8
I140997581
ssS'0000000851'
p3174
(dp3175
g3
g4
sg5
I1366496780
sg6
S'camera'
p3176
sg8
I40993738
ssS'0000000850'
p3177
(dp3178
g3
g4
sg5
I1366496780
sg6
S'camera'
p3179
sg8
I20992963
ssS'0000000853'
p3180
(dp3181
g3
g4
sg5
I1366496780
sg6
S'camera'
p3182
sg8
I80995266
ssS'0000000087'
p3183
(dp3184
g3
g4
sg5
I1366496764
sg6
S'camera'
p3185
sg8
I760424961
ssS'0000000921'
p3186
(dp3187
g3
g4
sg5
I1366496781
sg6
S'camera'
p3188
sg8
I441047262
ssS'0000000189'
p3189
(dp3190
g3
g4
sg5
I1366496766
sg6
S'camera'
p3191
sg8
I800499010
ssS'0000000188'
p3192
(dp3193
g3
g4
sg5
I1366496766
sg6
S'camera'
p3194
sg8
I780498297
ssS'0000000920'
p3195
(dp3196
g3
g4
sg5
I1366496781
sg6
S'camera'
p3197
sg8
I421046497
ssS'0000000183'
p3198
(dp3199
g3
g4
sg5
I1366496766
sg6
S'camera'
p3200
sg8
I680494677
ssS'0000000110'
p3201
(dp3202
g3
g4
sg5
I1366496765
sg6
S'camera'
p3203
sg8
I220441613
ssS'0000000181'
p3204
(dp3205
g3
g4
sg5
I1366496766
sg6
S'camera'
p3206
sg8
I640493224
ssS'0000000180'
p3207
(dp3208
g3
g4
sg5
I1366496766
sg6
S'camera'
p3209
sg8
I620492491
ssS'0000000187'
p3210
(dp3211
g3
g4
sg5
I1366496766
sg6
S'camera'
p3212
sg8
I760497573
ssS'0000000186'
p3213
(dp3214
g3
g4
sg5
I1366496766
sg6
S'camera'
p3215
sg8
I740496843
ssS'0000000185'
p3216
(dp3217
g3
g4
sg5
I1366496766
sg6
S'camera'
p3218
sg8
I720496098
ssS'0000000111'
p3219
(dp3220
g3
g4
sg5
I1366496765
sg6
S'camera'
p3221
sg8
I240442353
ssS'0000000675'
p3222
(dp3223
g3
g4
sg5
I1366496776
sg6
S'camera'
p3224
sg8
I520859087
ssS'0000000569'
p3225
(dp3226
g3
g4
sg5
I1366496774
sg6
S'camera'
p3227
sg8
I400780150
ssS'0000000677'
p3228
(dp3229
g3
g4
sg5
I1366496776
sg6
S'camera'
p3230
sg8
I560860601
ssS'0000000676'
p3231
(dp3232
g3
g4
sg5
I1366496776
sg6
S'camera'
p3233
sg8
I540859853
ssS'0000000671'
p3234
(dp3235
g3
g4
sg5
I1366496776
sg6
S'camera'
p3236
sg8
I440855984
ssS'0000000670'
p3237
(dp3238
g3
g4
sg5
I1366496776
sg6
S'camera'
p3239
sg8
I420855181
ssS'0000000673'
p3240
(dp3241
g3
g4
sg5
I1366496776
sg6
S'camera'
p3242
sg8
I480857549
ssS'0000000672'
p3243
(dp3244
g3
g4
sg5
I1366496776
sg6
S'camera'
p3245
sg8
I460856768
ssS'0000000774'
p3246
(dp3247
g3
g4
sg5
I1366496778
sg6
S'camera'
p3248
sg8
I500934980
ssS'0000000775'
p3249
(dp3250
g3
g4
sg5
I1366496778
sg6
S'camera'
p3251
sg8
I520935755
ssS'0000000776'
p3252
(dp3253
g3
g4
sg5
I1366496778
sg6
S'camera'
p3254
sg8
I540936498
ssS'0000000777'
p3255
(dp3256
g3
g4
sg5
I1366496778
sg6
S'camera'
p3257
sg8
I560937274
ssS'0000000679'
p3258
(dp3259
g3
g4
sg5
I1366496776
sg6
S'camera'
p3260
sg8
I600862125
ssS'0000000678'
p3261
(dp3262
g3
g4
sg5
I1366496776
sg6
S'camera'
p3263
sg8
I580861360
ssS'0000000772'
p3264
(dp3265
g3
g4
sg5
I1366496778
sg6
S'camera'
p3266
sg8
I460933455
ssS'0000000773'
p3267
(dp3268
g3
g4
sg5
I1366496778
sg6
S'camera'
p3269
sg8
I480934208
ssS'0000000817'
p3270
(dp3271
g3
g4
sg5
I1366496779
sg6
S'camera'
p3272
sg8
I360967819
ssS'0000000089'
p3273
(dp3274
g3
g4
sg5
I1366496764
sg6
S'camera'
p3275
sg8
I800426402
ssS'0000001218'
p3276
(dp3277
g3
g4
sg5
I1366496787
sg6
S'camera'
p3278
sg8
I381271937
ssS'0000000538'
p3279
(dp3280
g3
g4
sg5
I1366496773
sg6
S'camera'
p3281
sg8
I780757647
ssS'0000001101'
p3282
(dp3283
g3
g4
sg5
I1366496785
sg6
S'camera'
p3284
sg8
I41182802
ssS'0000001214'
p3285
(dp3286
g3
g4
sg5
I1366496787
sg6
S'camera'
p3287
sg8
I301268886
ssS'0000001215'
p3288
(dp3289
g3
g4
sg5
I1366496787
sg6
S'camera'
p3290
sg8
I321269653
ssS'0000001216'
p3291
(dp3292
g3
g4
sg5
I1366496787
sg6
S'camera'
p3293
sg8
I341270414
ssS'0000000539'
p3294
(dp3295
g3
g4
sg5
I1366496773
sg6
S'camera'
p3296
sg8
I800758369
ssS'0000001190'
p3297
(dp3298
g3
g4
sg5
I1366496786
sg6
S'camera'
p3299
sg8
I821250597
ssS'0000001211'
p3300
(dp3301
g3
g4
sg5
I1366496787
sg6
S'camera'
p3302
sg8
I241266623
ssS'0000001212'
p3303
(dp3304
g3
g4
sg5
I1366496787
sg6
S'camera'
p3305
sg8
I261267372
ssS'0000001213'
p3306
(dp3307
g3
g4
sg5
I1366496787
sg6
S'camera'
p3308
sg8
I281268122
ssS'0000000929'
p3309
(dp3310
g3
g4
sg5
I1366496781
sg6
S'camera'
p3311
sg8
I601053305
ssS'0000001066'
p3312
(dp3313
g3
g4
sg5
I1366496784
sg6
S'camera'
p3314
sg8
I341156174
ssS'0000001288'
p3315
(dp3316
g3
g4
sg5
I1366496788
sg6
S'camera'
p3317
sg8
I781325011
ssS'0000000928'
p3318
(dp3319
g3
g4
sg5
I1366496781
sg6
S'camera'
p3320
sg8
I581052553
ssS'0000001209'
p3321
(dp3322
g3
g4
sg5
I1366496787
sg6
S'camera'
p3323
sg8
I201265102
ssS'0000000971'
p3324
(dp3325
g3
g4
sg5
I1366496782
sg6
S'camera'
p3326
sg8
I441084898
ssS'0000000816'
p3327
(dp3328
g3
g4
sg5
I1366496779
sg6
S'camera'
p3329
sg8
I340967045
ssS'0000001104'
p3330
(dp3331
g3
g4
sg5
I1366496785
sg6
S'camera'
p3332
sg8
I101185076
ssS'0000001102'
p3333
(dp3334
g3
g4
sg5
I1366496785
sg6
S'camera'
p3335
sg8
I61183559
ssS'0000000533'
p3336
(dp3337
g3
g4
sg5
I1366496773
sg6
S'camera'
p3338
sg8
I680753980
ssS'0000000530'
p3339
(dp3340
g3
g4
sg5
I1366496773
sg6
S'camera'
p3341
sg8
I620751752
ssS'0000000079'
p3342
(dp3343
g3
g4
sg5
I1366496764
sg6
S'camera'
p3344
sg8
I600419067
ssS'0000000078'
p3345
(dp3346
g3
g4
sg5
I1366496764
sg6
S'camera'
p3347
sg8
I580418334
ssS'0000000077'
p3348
(dp3349
g3
g4
sg5
I1366496764
sg6
S'camera'
p3350
sg8
I560417602
ssS'0000000076'
p3351
(dp3352
g3
g4
sg5
I1366496764
sg6
S'camera'
p3353
sg8
I540416880
ssS'0000000075'
p3354
(dp3355
g3
g4
sg5
I1366496764
sg6
S'camera'
p3356
sg8
I520416116
ssS'0000000074'
p3357
(dp3358
g3
g4
sg5
I1366496764
sg6
S'camera'
p3359
sg8
I500415415
ssS'0000000073'
p3360
(dp3361
g3
g4
sg5
I1366496764
sg6
S'camera'
p3362
sg8
I480414700
ssS'0000000072'
p3363
(dp3364
g3
g4
sg5
I1366496764
sg6
S'camera'
p3365
sg8
I460413985
ssS'0000000071'
p3366
(dp3367
g3
g4
sg5
I1366496764
sg6
S'camera'
p3368
sg8
I440413264
ssS'0000000070'
p3369
(dp3370
g3
g4
sg5
I1366496764
sg6
S'camera'
p3371
sg8
I420412514
ssS'0000000279'
p3372
(dp3373
g3
g4
sg5
I1366496768
sg6
S'camera'
p3374
sg8
I600564692
ssS'0000000278'
p3375
(dp3376
g3
g4
sg5
I1366496768
sg6
S'camera'
p3377
sg8
I580563973
ssS'0000000174'
p3378
(dp3379
g3
g4
sg5
I1366496766
sg6
S'camera'
p3380
sg8
I500488152
ssS'0000000175'
p3381
(dp3382
g3
g4
sg5
I1366496766
sg6
S'camera'
p3383
sg8
I520488869
ssS'0000000172'
p3384
(dp3385
g3
g4
sg5
I1366496766
sg6
S'camera'
p3386
sg8
I460486715
ssS'0000000173'
p3387
(dp3388
g3
g4
sg5
I1366496766
sg6
S'camera'
p3389
sg8
I480487437
ssS'0000000170'
p3390
(dp3391
g3
g4
sg5
I1366496766
sg6
S'camera'
p3392
sg8
I420485266
ssS'0000000171'
p3393
(dp3394
g3
g4
sg5
I1366496766
sg6
S'camera'
p3395
sg8
I440485993
ssS'0000000271'
p3396
(dp3397
g3
g4
sg5
I1366496768
sg6
S'camera'
p3398
sg8
I440558863
ssS'0000000270'
p3399
(dp3400
g3
g4
sg5
I1366496768
sg6
S'camera'
p3401
sg8
I420558134
ssS'0000000273'
p3402
(dp3403
g3
g4
sg5
I1366496768
sg6
S'camera'
p3404
sg8
I480560316
ssS'0000000272'
p3405
(dp3406
g3
g4
sg5
I1366496768
sg6
S'camera'
p3407
sg8
I460559593
ssS'0000000275'
p3408
(dp3409
g3
g4
sg5
I1366496768
sg6
S'camera'
p3410
sg8
I520561772
ssS'0000000274'
p3411
(dp3412
g3
g4
sg5
I1366496768
sg6
S'camera'
p3413
sg8
I500561036
ssS'0000000178'
p3414
(dp3415
g3
g4
sg5
I1366496766
sg6
S'camera'
p3416
sg8
I580491045
ssS'0000000276'
p3417
(dp3418
g3
g4
sg5
I1366496768
sg6
S'camera'
p3419
sg8
I540562521
ssS'0000001002'
p3420
(dp3421
g3
g4
sg5
I1366496783
sg6
S'camera'
p3422
sg8
I61108371
ssS'0000000993'
p3423
(dp3424
g3
g4
sg5
I1366496782
sg6
S'camera'
p3425
sg8
I881101527
ssS'0000000852'
p3426
(dp3427
g3
g4
sg5
I1366496780
sg6
S'camera'
p3428
sg8
I60994498
ssS'0000001070'
p3429
(dp3430
g3
g4
sg5
I1366496784
sg6
S'camera'
p3431
sg8
I421159133
ssS'0000001071'
p3432
(dp3433
g3
g4
sg5
I1366496784
sg6
S'camera'
p3434
sg8
I441159887
ssS'0000001072'
p3435
(dp3436
g3
g4
sg5
I1366496784
sg6
S'camera'
p3437
sg8
I461160665
ssS'0000001073'
p3438
(dp3439
g3
g4
sg5
I1366496784
sg6
S'camera'
p3440
sg8
I481161513
ssS'0000001074'
p3441
(dp3442
g3
g4
sg5
I1366496784
sg6
S'camera'
p3443
sg8
I501162278
ssS'0000001075'
p3444
(dp3445
g3
g4
sg5
I1366496784
sg6
S'camera'
p3446
sg8
I521163049
ssS'0000001076'
p3447
(dp3448
g3
g4
sg5
I1366496784
sg6
S'camera'
p3449
sg8
I541163789
ssS'0000001077'
p3450
(dp3451
g3
g4
sg5
I1366496784
sg6
S'camera'
p3452
sg8
I561164540
ssS'0000001078'
p3453
(dp3454
g3
g4
sg5
I1366496784
sg6
S'camera'
p3455
sg8
I581165275
ssS'0000000240'
p3456
(dp3457
g3
g4
sg5
I1366496767
sg6
S'camera'
p3458
sg8
I820536241
ssS'0000001006'
p3459
(dp3460
g3
g4
sg5
I1366496783
sg6
S'camera'
p3461
sg8
I141111417
ssS'0000000983'
p3462
(dp3463
g3
g4
sg5
I1366496782
sg6
S'camera'
p3464
sg8
I681093860
ssS'0000001195'
p3465
(dp3466
g3
g4
sg5
I1366496786
sg6
S'camera'
p3467
sg8
I921254418
ssS'0000000241'
p3468
(dp3469
g3
g4
sg5
I1366496767
sg6
S'camera'
p3470
sg8
I840536977
ssS'0000001194'
p3471
(dp3472
g3
g4
sg5
I1366496786
sg6
S'camera'
p3473
sg8
I901253647
ssS'0000001264'
p3474
(dp3475
g3
g4
sg5
I1366496788
sg6
S'camera'
p3476
sg8
I301306895
ssS'0000001193'
p3477
(dp3478
g3
g4
sg5
I1366496786
sg6
S'camera'
p3479
sg8
I881252887
ssS'0000001192'
p3480
(dp3481
g3
g4
sg5
I1366496786
sg6
S'camera'
p3482
sg8
I861252137
ssS'0000000008'
p3483
(dp3484
g3
g4
sg5
I1366496763
sg6
S'camera'
p3485
sg8
I180366746
ssS'0000000009'
p3486
(dp3487
g3
g4
sg5
I1366496763
sg6
S'camera'
p3488
sg8
I200367527
ssS'0000001058'
p3489
(dp3490
g3
g4
sg5
I1366496784
sg6
S'camera'
p3491
sg8
I181150052
ssS'0000000002'
p3492
(dp3493
g3
g4
sg5
I1366496763
sg6
S'camera'
p3494
sg8
I60362094
ssS'0000000003'
p3495
(dp3496
g3
g4
sg5
I1366496763
sg6
S'camera'
p3497
sg8
I80362878
ssS'0000000001'
p3498
(dp3499
g3
g4
sg5
I1366496763
sg6
S'camera'
p3500
sg8
I40361302
ssS'0000000006'
p3501
(dp3502
g3
g4
sg5
I1366496763
sg6
S'camera'
p3503
sg8
I140365187
ssS'0000000007'
p3504
(dp3505
g3
g4
sg5
I1366496763
sg6
S'camera'
p3506
sg8
I160365972
ssS'0000000004'
p3507
(dp3508
g3
g4
sg5
I1366496763
sg6
S'camera'
p3509
sg8
I100363654
ssS'0000000005'
p3510
(dp3511
g3
g4
sg5
I1366496763
sg6
S'camera'
p3512
sg8
I120364405
ssS'0000001282'
p3513
(dp3514
g3
g4
sg5
I1366496788
sg6
S'camera'
p3515
sg8
I661320534
ssS'0000000182'
p3516
(dp3517
g3
g4
sg5
I1366496766
sg6
S'camera'
p3518
sg8
I660493949
ssS'0000000750'
p3519
(dp3520
g3
g4
sg5
I1366496778
sg6
S'camera'
p3521
sg8
I20916645
ssS'0000000824'
p3522
(dp3523
g3
g4
sg5
I1366496779
sg6
S'camera'
p3524
sg8
I500973102
ssS'0000000825'
p3525
(dp3526
g3
g4
sg5
I1366496779
sg6
S'camera'
p3527
sg8
I520973891
ssS'0000000826'
p3528
(dp3529
g3
g4
sg5
I1366496779
sg6
S'camera'
p3530
sg8
I540974658
ssS'0000000827'
p3531
(dp3532
g3
g4
sg5
I1366496779
sg6
S'camera'
p3533
sg8
I560975430
ssS'0000000419'
p3534
(dp3535
g3
g4
sg5
I1366496771
sg6
S'camera'
p3536
sg8
I400669646
ssS'0000000418'
p3537
(dp3538
g3
g4
sg5
I1366496771
sg6
S'camera'
p3539
sg8
I380668879
ssS'0000000822'
p3540
(dp3541
g3
g4
sg5
I1366496779
sg6
S'camera'
p3542
sg8
I460971623
ssS'0000000823'
p3543
(dp3544
g3
g4
sg5
I1366496779
sg6
S'camera'
p3545
sg8
I480972365
ssS'0000000415'
p3546
(dp3547
g3
g4
sg5
I1366496771
sg6
S'camera'
p3548
sg8
I320666603
ssS'0000000414'
p3549
(dp3550
g3
g4
sg5
I1366496771
sg6
S'camera'
p3551
sg8
I300665824
ssS'0000000417'
p3552
(dp3553
g3
g4
sg5
I1366496771
sg6
S'camera'
p3554
sg8
I360668110
ssS'0000000416'
p3555
(dp3556
g3
g4
sg5
I1366496771
sg6
S'camera'
p3557
sg8
I340667335
ssS'0000000411'
p3558
(dp3559
g3
g4
sg5
I1366496771
sg6
S'camera'
p3560
sg8
I240663556
ssS'0000000410'
p3561
(dp3562
g3
g4
sg5
I1366496771
sg6
S'camera'
p3563
sg8
I220662789
ssS'0000000413'
p3564
(dp3565
g3
g4
sg5
I1366496771
sg6
S'camera'
p3566
sg8
I280665067
ssS'0000000412'
p3567
(dp3568
g3
g4
sg5
I1366496771
sg6
S'camera'
p3569
sg8
I260664291
ssS'0000000554'
p3570
(dp3571
g3
g4
sg5
I1366496774
sg6
S'camera'
p3572
sg8
I100769277
ssS'0000000555'
p3573
(dp3574
g3
g4
sg5
I1366496774
sg6
S'camera'
p3575
sg8
I120769986
ssS'0000000556'
p3576
(dp3577
g3
g4
sg5
I1366496774
sg6
S'camera'
p3578
sg8
I140770721
ssS'0000000557'
p3579
(dp3580
g3
g4
sg5
I1366496774
sg6
S'camera'
p3581
sg8
I160771452
ssS'0000000550'
p3582
(dp3583
g3
g4
sg5
I1366496774
sg6
S'camera'
p3584
sg8
I20766373
ssS'0000000551'
p3585
(dp3586
g3
g4
sg5
I1366496774
sg6
S'camera'
p3587
sg8
I40767098
ssS'0000000552'
p3588
(dp3589
g3
g4
sg5
I1366496774
sg6
S'camera'
p3590
sg8
I60767829
ssS'0000000553'
p3591
(dp3592
g3
g4
sg5
I1366496774
sg6
S'camera'
p3593
sg8
I80768555
ssS'0000001107'
p3594
(dp3595
g3
g4
sg5
I1366496785
sg6
S'camera'
p3596
sg8
I161187385
ssS'0000000184'
p3597
(dp3598
g3
g4
sg5
I1366496766
sg6
S'camera'
p3599
sg8
I700495401
ssS'0000000558'
p3600
(dp3601
g3
g4
sg5
I1366496774
sg6
S'camera'
p3602
sg8
I180772179
ssS'0000000559'
p3603
(dp3604
g3
g4
sg5
I1366496774
sg6
S'camera'
p3605
sg8
I200772901
ssS'0000000923'
p3606
(dp3607
g3
g4
sg5
I1366496781
sg6
S'camera'
p3608
sg8
I481048772
ssS'0000000674'
p3609
(dp3610
g3
g4
sg5
I1366496776
sg6
S'camera'
p3611
sg8
I500858326
ssS'0000001064'
p3612
(dp3613
g3
g4
sg5
I1366496784
sg6
S'camera'
p3614
sg8
I301154652
ssS'0000000927'
p3615
(dp3616
g3
g4
sg5
I1366496781
sg6
S'camera'
p3617
sg8
I561051792
ssS'0000000950'
p3618
(dp3619
g3
g4
sg5
I1366496782
sg6
S'camera'
p3620
sg8
I21069025
ssS'0000000951'
p3621
(dp3622
g3
g4
sg5
I1366496782
sg6
S'camera'
p3623
sg8
I41069804
ssS'0000000952'
p3624
(dp3625
g3
g4
sg5
I1366496782
sg6
S'camera'
p3626
sg8
I61070556
ssS'0000000752'
p3627
(dp3628
g3
g4
sg5
I1366496778
sg6
S'camera'
p3629
sg8
I60918169
ssS'0000000954'
p3630
(dp3631
g3
g4
sg5
I1366496782
sg6
S'camera'
p3632
sg8
I101072076
ssS'0000000955'
p3633
(dp3634
g3
g4
sg5
I1366496782
sg6
S'camera'
p3635
sg8
I121072827
ssS'0000000956'
p3636
(dp3637
g3
g4
sg5
I1366496782
sg6
S'camera'
p3638
sg8
I141073569
ssS'0000000957'
p3639
(dp3640
g3
g4
sg5
I1366496782
sg6
S'camera'
p3641
sg8
I161074330
ssS'0000000958'
p3642
(dp3643
g3
g4
sg5
I1366496782
sg6
S'camera'
p3644
sg8
I181075086
ssS'0000000778'
p3645
(dp3646
g3
g4
sg5
I1366496778
sg6
S'camera'
p3647
sg8
I580938055
ssS'0000000922'
p3648
(dp3649
g3
g4
sg5
I1366496781
sg6
S'camera'
p3650
sg8
I461047989
ssS'0000000779'
p3651
(dp3652
g3
g4
sg5
I1366496778
sg6
S'camera'
p3653
sg8
I600938823
ssS'0000000738'
p3654
(dp3655
g3
g4
sg5
I1366496777
sg6
S'camera'
p3656
sg8
I780907334
ssS'0000000739'
p3657
(dp3658
g3
g4
sg5
I1366496777
sg6
S'camera'
p3659
sg8
I800908100
ssS'0000000806'
p3660
(dp3661
g3
g4
sg5
I1366496779
sg6
S'camera'
p3662
sg8
I140959395
ssS'0000000730'
p3663
(dp3664
g3
g4
sg5
I1366496777
sg6
S'camera'
p3665
sg8
I620901279
ssS'0000000731'
p3666
(dp3667
g3
g4
sg5
I1366496777
sg6
S'camera'
p3668
sg8
I640902028
ssS'0000000732'
p3669
(dp3670
g3
g4
sg5
I1366496777
sg6
S'camera'
p3671
sg8
I660902789
ssS'0000000733'
p3672
(dp3673
g3
g4
sg5
I1366496777
sg6
S'camera'
p3674
sg8
I680903554
ssS'0000000734'
p3675
(dp3676
g3
g4
sg5
I1366496777
sg6
S'camera'
p3677
sg8
I700904328
ssS'0000000735'
p3678
(dp3679
g3
g4
sg5
I1366496777
sg6
S'camera'
p3680
sg8
I720905059
ssS'0000000736'
p3681
(dp3682
g3
g4
sg5
I1366496777
sg6
S'camera'
p3683
sg8
I740905811
ssS'0000000030'
p3684
(dp3685
g3
g4
sg5
I1366496763
sg6
S'camera'
p3686
sg8
I620383544
ssS'0000000301'
p3687
(dp3688
g3
g4
sg5
I1366496769
sg6
S'camera'
p3689
sg8
I40580766
ssS'0000000300'
p3690
(dp3691
g3
g4
sg5
I1366496769
sg6
S'camera'
p3692
sg8
I20579992
ssS'0000000303'
p3693
(dp3694
g3
g4
sg5
I1366496769
sg6
S'camera'
p3695
sg8
I80582224
ssS'0000000302'
p3696
(dp3697
g3
g4
sg5
I1366496769
sg6
S'camera'
p3698
sg8
I60581492
ssS'0000000305'
p3699
(dp3700
g3
g4
sg5
I1366496769
sg6
S'camera'
p3701
sg8
I120583650
ssS'0000000304'
p3702
(dp3703
g3
g4
sg5
I1366496769
sg6
S'camera'
p3704
sg8
I100582931
ssS'0000000307'
p3705
(dp3706
g3
g4
sg5
I1366496769
sg6
S'camera'
p3707
sg8
I160585126
ssS'0000000306'
p3708
(dp3709
g3
g4
sg5
I1366496769
sg6
S'camera'
p3710
sg8
I140584383
ssS'0000000309'
p3711
(dp3712
g3
g4
sg5
I1366496769
sg6
S'camera'
p3713
sg8
I200586572
ssS'0000000308'
p3714
(dp3715
g3
g4
sg5
I1366496769
sg6
S'camera'
p3716
sg8
I180585850
ssS'0000001252'
p3717
(dp3718
g3
g4
sg5
I1366496788
sg6
S'camera'
p3719
sg8
I61297815
ssS'0000001253'
p3720
(dp3721
g3
g4
sg5
I1366496788
sg6
S'camera'
p3722
sg8
I81298570
ssS'0000000925'
p3723
(dp3724
g3
g4
sg5
I1366496781
sg6
S'camera'
p3725
sg8
I521050302
ssS'0000001255'
p3726
(dp3727
g3
g4
sg5
I1366496788
sg6
S'camera'
p3728
sg8
I121300098
ssS'0000001256'
p3729
(dp3730
g3
g4
sg5
I1366496788
sg6
S'camera'
p3731
sg8
I141300869
ssS'0000001062'
p3732
(dp3733
g3
g4
sg5
I1366496784
sg6
S'camera'
p3734
sg8
I261153103
ssS'0000001153'
p3735
(dp3736
g3
g4
sg5
I1366496786
sg6
S'camera'
p3737
sg8
I81222401
ssS'0000001152'
p3738
(dp3739
g3
g4
sg5
I1366496786
sg6
S'camera'
p3740
sg8
I61221632
ssS'0000001098'
p3741
(dp3742
g3
g4
sg5
I1366496784
sg6
S'camera'
p3743
sg8
I981180526
ssS'0000001099'
p3744
(dp3745
g3
g4
sg5
I1366496785
sg6
S'camera'
p3746
sg8
I1181271
ssS'0000001157'
p3747
(dp3748
g3
g4
sg5
I1366496786
sg6
S'camera'
p3749
sg8
I161225431
ssS'0000001156'
p3750
(dp3751
g3
g4
sg5
I1366496786
sg6
S'camera'
p3752
sg8
I141224682
ssS'0000001155'
p3753
(dp3754
g3
g4
sg5
I1366496786
sg6
S'camera'
p3755
sg8
I121223923
ssS'0000001154'
p3756
(dp3757
g3
g4
sg5
I1366496786
sg6
S'camera'
p3758
sg8
I101223153
ssS'0000001092'
p3759
(dp3760
g3
g4
sg5
I1366496784
sg6
S'camera'
p3761
sg8
I861175959
ssS'0000000770'
p3762
(dp3763
g3
g4
sg5
I1366496778
sg6
S'camera'
p3764
sg8
I420931901
ssS'0000001090'
p3765
(dp3766
g3
g4
sg5
I1366496784
sg6
S'camera'
p3767
sg8
I821174438
ssS'0000001060'
p3768
(dp3769
g3
g4
sg5
I1366496784
sg6
S'camera'
p3770
sg8
I221151588
ssS'0000001096'
p3771
(dp3772
g3
g4
sg5
I1366496784
sg6
S'camera'
p3773
sg8
I941179037
ssS'0000001097'
p3774
(dp3775
g3
g4
sg5
I1366496784
sg6
S'camera'
p3776
sg8
I961179811
ssS'0000001094'
p3777
(dp3778
g3
g4
sg5
I1366496784
sg6
S'camera'
p3779
sg8
I901177503
ssS'0000000771'
p3780
(dp3781
g3
g4
sg5
I1366496778
sg6
S'camera'
p3782
sg8
I440932677
ssS'0000000740'
p3783
(dp3784
g3
g4
sg5
I1366496777
sg6
S'camera'
p3785
sg8
I820908869
ssS'0000000788'
p3786
(dp3787
g3
g4
sg5
I1366496778
sg6
S'camera'
p3788
sg8
I780945642
ssS'0000000982'
p3789
(dp3790
g3
g4
sg5
I1366496782
sg6
S'camera'
p3791
sg8
I661093089
ssS'0000000785'
p3792
(dp3793
g3
g4
sg5
I1366496778
sg6
S'camera'
p3794
sg8
I720943376
ssS'0000000784'
p3795
(dp3796
g3
g4
sg5
I1366496778
sg6
S'camera'
p3797
sg8
I700942601
ssS'0000000787'
p3798
(dp3799
g3
g4
sg5
I1366496778
sg6
S'camera'
p3800
sg8
I760944918
ssS'0000000786'
p3801
(dp3802
g3
g4
sg5
I1366496778
sg6
S'camera'
p3803
sg8
I740944146
ssS'0000000781'
p3804
(dp3805
g3
g4
sg5
I1366496778
sg6
S'camera'
p3806
sg8
I640940333
ssS'0000000780'
p3807
(dp3808
g3
g4
sg5
I1366496778
sg6
S'camera'
p3809
sg8
I620939572
ssS'0000000783'
p3810
(dp3811
g3
g4
sg5
I1366496778
sg6
S'camera'
p3812
sg8
I680941819
ssS'0000000782'
p3813
(dp3814
g3
g4
sg5
I1366496778
sg6
S'camera'
p3815
sg8
I660941041
ssS'0000001287'
p3816
(dp3817
g3
g4
sg5
I1366496788
sg6
S'camera'
p3818
sg8
I761324280
ssS'0000001281'
p3819
(dp3820
g3
g4
sg5
I1366496788
sg6
S'camera'
p3821
sg8
I641319794
ssS'0000000608'
p3822
(dp3823
g3
g4
sg5
I1366496775
sg6
S'camera'
p3824
sg8
I180808552
ssS'0000000609'
p3825
(dp3826
g3
g4
sg5
I1366496775
sg6
S'camera'
p3827
sg8
I200809284
ssS'0000000604'
p3828
(dp3829
g3
g4
sg5
I1366496775
sg6
S'camera'
p3830
sg8
I100805654
ssS'0000000605'
p3831
(dp3832
g3
g4
sg5
I1366496775
sg6
S'camera'
p3833
sg8
I120806363
ssS'0000000606'
p3834
(dp3835
g3
g4
sg5
I1366496775
sg6
S'camera'
p3836
sg8
I140807112
ssS'0000000607'
p3837
(dp3838
g3
g4
sg5
I1366496775
sg6
S'camera'
p3839
sg8
I160807827
ssS'0000000600'
p3840
(dp3841
g3
g4
sg5
I1366496775
sg6
S'camera'
p3842
sg8
I20802757
ssS'0000000601'
p3843
(dp3844
g3
g4
sg5
I1366496775
sg6
S'camera'
p3845
sg8
I40803481
ssS'0000000602'
p3846
(dp3847
g3
g4
sg5
I1366496775
sg6
S'camera'
p3848
sg8
I60804211
ssS'0000000603'
p3849
(dp3850
g3
g4
sg5
I1366496775
sg6
S'camera'
p3851
sg8
I80804931
ssS'0000000235'
p3852
(dp3853
g3
g4
sg5
I1366496767
sg6
S'camera'
p3854
sg8
I720532605
ssS'0000000234'
p3855
(dp3856
g3
g4
sg5
I1366496767
sg6
S'camera'
p3857
sg8
I700531887
ssS'0000000237'
p3858
(dp3859
g3
g4
sg5
I1366496767
sg6
S'camera'
p3860
sg8
I760534074
ssS'0000000236'
p3861
(dp3862
g3
g4
sg5
I1366496767
sg6
S'camera'
p3863
sg8
I740533348
ssS'0000000231'
p3864
(dp3865
g3
g4
sg5
I1366496767
sg6
S'camera'
p3866
sg8
I640529663
ssS'0000000230'
p3867
(dp3868
g3
g4
sg5
I1366496767
sg6
S'camera'
p3869
sg8
I620528913
ssS'0000000233'
p3870
(dp3871
g3
g4
sg5
I1366496767
sg6
S'camera'
p3872
sg8
I680531152
ssS'0000000232'
p3873
(dp3874
g3
g4
sg5
I1366496767
sg6
S'camera'
p3875
sg8
I660530424
ssS'0000000239'
p3876
(dp3877
g3
g4
sg5
I1366496767
sg6
S'camera'
p3878
sg8
I800535516
ssS'0000000238'
p3879
(dp3880
g3
g4
sg5
I1366496767
sg6
S'camera'
p3881
sg8
I780534797
ssS'0000000706'
p3882
(dp3883
g3
g4
sg5
I1366496777
sg6
S'camera'
p3884
sg8
I140882981
ssS'0000000926'
p3885
(dp3886
g3
g4
sg5
I1366496781
sg6
S'camera'
p3887
sg8
I541051034
ssS'0000000701'
p3888
(dp3889
g3
g4
sg5
I1366496777
sg6
S'camera'
p3890
sg8
I40879085
ssS'0000001050'
p3891
(dp3892
g3
g4
sg5
I1366496784
sg6
S'camera'
p3893
sg8
I21144098
ssS'0000000700'
p3894
(dp3895
g3
g4
sg5
I1366496777
sg6
S'camera'
p3896
sg8
I20878222
ss.