(dp0
S'control'
p1
(lp2
I0
aF-1.7928727865219116
aF-1.7799489498138428
aF-1.8146982192993164
aF-1.718187689781189
aF-1.5529590845108032
aF-1.54630446434021
aF-1.4299052953720093
aF-1.3833729028701782
aF-1.3326313495635986
aF-1.2049540281295776
aF-1.159024953842163
aF-1.1425546407699585
aF-1.0233982801437378
aF-0.9890177249908447
aF-0.9312486052513123
aF-0.8930495977401733
aF-0.8566655516624451
aF-0.796729564666748
aF-0.7471514940261841
aF-0.7446443438529968
aF-0.7083929777145386
aF-0.641579270362854
aF-0.6130407452583313
aF-0.5903871655464172
aF-0.5247735381126404
aF-0.5205636620521545
aF-0.4776615500450134
aF-0.4321788549423218
aF-0.4254400134086609
aF-0.38515323400497437
aF-0.3714134693145752
aF-0.37516188621520996
aF-0.30558541417121887
aF-0.29582905769348145
aF-0.25246569514274597
aF-0.2612283527851105
aF-0.20387934148311615
aF-0.22464410960674286
aF-0.20298977196216583
aF-0.17043200135231018
aF-0.18626956641674042
aF-0.16097863018512726
aF-0.18372592329978943
aF-0.13817279040813446
aF-0.11507293581962585
aF-0.08406396955251694
aF-0.067398801445961
aF-0.053707826882600784
aF-0.05191147327423096
aF-0.06206275895237923
aF-0.04783133789896965
aF-0.07373528927564621
aF-0.026832062751054764
aF-0.017509907484054565
aF0.02178088203072548
aF0.03758426383137703
aF-0.005145534873008728
aF0.04544922709465027
aF0.015809444710612297
aF0.06417325139045715
aF0.0695977732539177
aF0.03850238770246506
aF0.14379167556762695
aF0.050396084785461426
aF0.06346472352743149
aF0.09672316163778305
aF0.11688821762800217
aF0.13171043992042542
aF0.10234656184911728
aF0.08529894798994064
aF0.13614124059677124
aF0.08056384325027466
aF0.12860071659088135
aF0.15468497574329376
aF0.1844169795513153
aF0.16786643862724304
aF0.1414228081703186
aF0.1351025551557541
aF0.12196904420852661
aF0.16902518272399902
aF0.20865003764629364
aF0.19013790786266327
aF0.21849890053272247
aF0.1865430623292923
aF0.16355088353157043
aF0.205369234085083
aF0.19923323392868042
aF0.23087896406650543
aF0.20010174810886383
aF0.19934570789337158
aF0.2338087260723114
aF0.18787595629692078
aF0.23479682207107544
aF0.21147370338439941
aF0.23487547039985657
aF0.25420859456062317
aF0.1858171969652176
aF0.24456200003623962
aF0.20302829146385193
aF0.301808625459671
aF0.22788530588150024
aF0.23176662623882294
aF0.2686719298362732
aF0.21240678429603577
aF0.1938844472169876
aF0.2749135494232178
aF0.2082643210887909
aF0.2573240101337433
aF0.26435694098472595
aF0.2118469625711441
aF0.2500911056995392
aF0.16549323499202728
aF0.22691915929317474
aF0.23026399314403534
aF0.21391472220420837
aF0.23248440027236938
aF0.21505790948867798
aF0.18631497025489807
aF0.17243371903896332
aF0.1054844781756401
aF0.2260332852602005
aF0.17592023313045502
aF0.17753319442272186
aF0.1863168627023697
aF0.16041184961795807
aF0.1587141752243042
aF0.13562491536140442
aF0.15467020869255066
aF0.12121782451868057
aF0.18050242960453033
aF0.12509498000144958
aF0.13960722088813782
aF0.10820670425891876
aF0.10015901178121567
aF0.12913095951080322
aF0.15220260620117188
aF0.12582634389400482
aF0.19455350935459137
aF0.13567477464675903
aF0.11199123412370682
aF0.09354783594608307
aF0.15553273260593414
aF0.16448503732681274
aF0.11062885075807571
aF0.15132658183574677
aF0.10953592509031296
aF0.11803308874368668
aF0.11737014353275299
aF0.14283443987369537
aF0.18766359984874725
aF0.1356680989265442
aF0.13359558582305908
aF0.08221037685871124
aF0.058273330330848694
aF0.09860772639513016
aF0.1451783925294876
aF0.07119414210319519
aF0.07511766254901886
aF0.1338564157485962
aF0.06745579838752747
aF0.07023714482784271
aF0.07162602990865707
aF0.09513851255178452
aF0.10803042352199554
aF0.143016517162323
aF0.10286875814199448
aF0.12752848863601685
aF0.11686597019433975
aF0.09052641689777374
aF0.13123176991939545
aF0.14066889882087708
aF0.16233256459236145
aF0.15937767922878265
aF0.09240410476922989
aF0.1487271785736084
aF0.09953341633081436
aF0.13159286975860596
aF0.1449524462223053
aF0.10883098840713501
aF0.1460115611553192
aF0.106896311044693
aF0.11690966784954071
aF0.08484296500682831
aF0.18513523042201996
aF0.06001778319478035
aF0.14439186453819275
aF0.09346182644367218
aF0.09873729199171066
aF0.14664404094219208
aF0.016938939690589905
aF0.10528404265642166
aF0.05349476635456085
aF0.16535483300685883
aF0.05256032571196556
aF0.1410117894411087
aF0.0075253830291330814
aF0.1198316216468811
aF0.046064626425504684
aF0.12057608366012573
aF0.03778491169214249
aF0.1698862612247467
aF0.020455896854400635
aF0.14542506635189056
aF0.04097828269004822
aF0.1547696888446808
aF0.04069908335804939
aF0.1388358622789383
aF0.010759061202406883
aF0.13871587812900543
aF0.03615399822592735
aF0.13673309981822968
aF0.040420129895210266
aF0.07979823648929596
aF0.09953327476978302
aF0.04243597388267517
aF0.1508350372314453
aF0.006914313416928053
aF0.171742781996727
aF0.009458850137889385
aF0.16010455787181854
aF0.005976737476885319
aF0.10931599885225296
aF0.09038415551185608
aF0.031386930495500565
aF0.1413235068321228
aF0.028484603390097618
aF0.05167842283844948
aF0.13507188856601715
aF-0.015730315819382668
aF0.10517235100269318
aF-0.01892133802175522
aF0.1061757281422615
aF0.05816345661878586
aF0.0395771823823452
aF0.528680682182312
aF0.29732412099838257
aF-0.36655303835868835
aF0.3541308641433716
aF-0.4144951105117798
aF0.3595975637435913
aF-0.40876278281211853
aF0.19798745214939117
aF-0.007623573765158653
aF0.11486651748418808
aF-0.057265494018793106
aF0.022042779251933098
aF-0.035733457654714584
aF0.1121949851512909
aF0.014994039200246334
aF0.0867718905210495
aF0.2276877760887146
aF0.02221529185771942
aF0.03928213566541672
aF-0.0168561153113842
aF0.04908199980854988
aF0.07181252539157867
aF0.058348558843135834
aF0.034161243587732315
aF0.1253523975610733
aF-0.016589971259236336
aF-0.023628203198313713
aF0.1013479232788086
aF0.11911666393280029
aF0.06437260657548904
aF0.10352898389101028
aF0.047750622034072876
aF0.1226164847612381
aF0.031009521335363388
aF0.09110668301582336
aF0.0005152635276317596
aF0.23361322283744812
aF0.06596314162015915
aF0.07744353264570236
aF0.07038915902376175
aF0.11354870349168777
aF-0.02382957749068737
aF0.06310449540615082
aF0.13674390316009521
aF0.04481164366006851
aF0.05947137251496315
aF0.0945860743522644
aF0.03842941299080849
aF0.03457583114504814
aF0.09718520939350128
aF0.059781745076179504
aF0.04417670890688896
aF0.056864142417907715
aF0.11435239762067795
aF0.08044932037591934
aF-0.05401669070124626
aF0.12004555761814117
aF0.04758178070187569
aF0.07436621189117432
aF-0.024359136819839478
aF0.11540564894676208
aF0.10264629870653152
aF-0.02738391049206257
aF0.03669220209121704
aF0.09264567494392395
aF0.04864468798041344
aF0.0840601772069931
aF-0.07743586599826813
aF0.09776744246482849
aF0.03835994750261307
aF0.06172487884759903
aF-0.007798618171364069
aF0.04328474774956703
aF0.05098363384604454
aF0.010828092694282532
aF-0.08059010654687881
aF0.08785688132047653
aF-0.005902998149394989
aF0.14700257778167725
aF-0.031900178641080856
aF0.12821044027805328
aF-0.0400000624358654
aF0.08868365734815598
aF-0.008020247332751751
aF0.09345218539237976
aF-0.031768396496772766
aF0.05985333025455475
aF0.1103484258055687
aF0.008347473107278347
aF0.05878168344497681
aF-0.03453328087925911
aF0.1606660932302475
aF0.0018451751675456762
aF0.003556795185431838
aF-0.0617624893784523
aF-0.02335420437157154
aF0.17609672248363495
aF-0.04181550070643425
aF0.013676592148840427
aF-0.04496489837765694
aF0.05948995426297188
aF0.04102877154946327
aF0.07867119461297989
aF-0.04707718268036842
aF0.07772766053676605
aF-0.023706743493676186
aF0.16149592399597168
aF0.0008978725527413189
aF0.028750548139214516
aF0.05739777907729149
aF-0.01454662811011076
aF0.12290606647729874
aF0.02348972298204899
aF-0.06459439545869827
aF0.008023052476346493
aF-0.07133380323648453
aF0.15297158062458038
aF0.07036459445953369
aF0.03528504818677902
aF0.08067242801189423
aF0.016173752024769783
aF0.012300252914428711
aF0.010700872167944908
aF0.08272655308246613
aF-0.003464918117970228
aF0.04433019459247589
aF0.010006804019212723
aF0.018495431169867516
aF0.07188437134027481
aF0.05236918851733208
aF-0.018609490245580673
aF0.01360952015966177
aF-0.005378276575356722
aF-0.026375988498330116
aF0.11650543659925461
aF0.024525191634893417
aF0.042444244027137756
aF-0.054396193474531174
aF0.05605815723538399
aF-0.030995097011327744
aF0.10679777711629868
aF0.04179942607879639
aF-0.04462467506527901
aF-0.005745328962802887
aF0.013764218427240849
aF0.008628168143332005
aF0.08874626457691193
aF0.060382645577192307
aF0.04038294032216072
aF-0.033960212022066116
aF-0.05528698489069939
aF-0.0158268790692091
aF0.010542499832808971
aF0.166763037443161
aF-2.1040761470794678
aF-1.7587239742279053
aF-1.8344768285751343
aF-1.7767301797866821
aF-1.8691071271896362
aF-1.796193242073059
aF-1.7606415748596191
aF-1.8042984008789062
aF-1.755765438079834
aF-1.846811056137085
aF-1.7716480493545532
aF-1.8443067073822021
aF-1.7876245975494385
aF-1.8563274145126343
aF-1.7224570512771606
aF-1.8022661209106445
aF-1.8292709589004517
aF-1.7606358528137207
aF-1.8209750652313232
aF-1.8044366836547852
aF-1.7931370735168457
aF-1.8162661790847778
aF-1.7533193826675415
aF-1.8335152864456177
aF-1.8271872997283936
aF-1.7856981754302979
aF-1.7764475345611572
aF-1.8292256593704224
aF-1.8053176403045654
aF-1.7832093238830566
aF-1.8129174709320068
aF-1.8341734409332275
aF-1.8211371898651123
aF-1.7629224061965942
aF-1.820481300354004
aF-1.7981871366500854
aF-1.7882224321365356
aF-1.7674012184143066
aF-1.8314788341522217
aF-1.7881898880004883
aF-1.8263599872589111
aF-1.8556818962097168
aF-1.783650517463684
aF-1.8753615617752075
aF-1.7177289724349976
aF-1.8227360248565674
aF-1.7640223503112793
aF-1.8059386014938354
aF-1.7606873512268066
aF-1.8018664121627808
aF-1.8007771968841553
aF-1.811082124710083
aF-1.8138107061386108
aF-1.8085269927978516
aF-1.8390579223632812
aF-1.7588616609573364
aF-1.838362455368042
aF-1.771191954612732
aF-1.7871531248092651
aF-1.8467262983322144
aF-1.7794127464294434
aF-1.8100730180740356
aF-1.7835737466812134
aF-1.8292447328567505
aF-1.789466142654419
aF-1.7930214405059814
aF-1.7998689413070679
aF-1.7903605699539185
aF-1.846234679222107
aF-1.751139521598816
aF-1.7944968938827515
aF-1.7690858840942383
aF-1.7384004592895508
aF-1.8734166622161865
aF-1.8332856893539429
aF-1.7641427516937256
aF-1.8611074686050415
aF-1.7528905868530273
aF-1.8206748962402344
aF-1.8359566926956177
aF-1.7605161666870117
aF-1.7964673042297363
aF-1.7938330173492432
aF-1.7895781993865967
aF-1.8609956502914429
aF-1.7723145484924316
aF-1.8527363538742065
aF-1.7735846042633057
aF-1.8519970178604126
aF-1.754838228225708
aF-1.7622989416122437
aF-1.8760851621627808
aF-1.844970941543579
aF-1.8003700971603394
aF-1.781082272529602
aF-1.805651068687439
aF-1.8161228895187378
aF-1.7845340967178345
aF-1.793383240699768
aF-1.8360538482666016
aF-1.8608484268188477
aF-1.7632293701171875
aF-1.7862213850021362
aF-1.8304407596588135
aF-1.7639210224151611
aF-1.7506790161132812
aF-1.8195126056671143
aF-1.7739002704620361
aF-1.8370895385742188
aF-1.7862839698791504
aF-1.7856059074401855
aF-1.8108172416687012
aF-1.818203330039978
aF-1.8171848058700562
aF-1.8073654174804688
aF-1.7698748111724854
aF-1.7966628074645996
aF-1.7429251670837402
aF-1.7801941633224487
aF-1.8444675207138062
aF-1.8122279644012451
aF-1.822006106376648
aF-1.7459760904312134
aF-1.865207552909851
aF-1.7574727535247803
aF-1.8176813125610352
aF-1.8023781776428223
aF-1.8240928649902344
aF-1.8265533447265625
aF-1.7244588136672974
aF-1.8627283573150635
aF-1.7938395738601685
aF-1.7888872623443604
aF-1.8429758548736572
aF-1.7529875040054321
aF-1.8657370805740356
aF-1.7449077367782593
aF-1.7679487466812134
aF-1.8634729385375977
aF-1.7654625177383423
aF-1.8248040676116943
aF-1.7695657014846802
aF-1.8091682195663452
aF-1.874932050704956
aF-1.8216804265975952
aF-1.7368289232254028
aF-1.8190152645111084
aF-1.8426132202148438
aF-1.801291823387146
aF-1.778480887413025
aF-1.8011791706085205
aF-1.8452109098434448
aF-1.6859171390533447
aF-1.8251174688339233
aF-1.7802743911743164
aF-1.86233651638031
aF-1.7495160102844238
aF-1.7821475267410278
aF-1.8410149812698364
aF-1.7870490550994873
aF-1.7675424814224243
aF-1.8344151973724365
aF-1.7255284786224365
aF-1.8615961074829102
aF-1.74876070022583
aF-1.7935502529144287
aF-1.8736212253570557
aF-1.7478328943252563
aF-1.7844574451446533
aF-1.7572931051254272
aF-1.803847312927246
aF-1.8644685745239258
aF-1.788312554359436
aF-1.8294546604156494
aF-1.7829961776733398
aF-1.8619226217269897
aF-1.7528131008148193
aF-1.7834153175354004
aF-1.8308662176132202
aF-1.8526288270950317
aF-1.7321282625198364
aF-1.8329483270645142
aF-1.7444502115249634
aF-1.903233528137207
asS'position_steps'
p3
(lp4
I49171
aI49170
aI49154
aI49141
aI49094
aI49032
aI48964
aI48919
aI48824
aI48723
aI48617
aI48504
aI48388
aI48253
aI48129
aI47974
aI47807
aI47693
aI47478
aI47311
aI47151
aI46971
aI46757
aI46612
aI46389
aI46170
aI46031
aI45808
aI45537
aI45386
aI45104
aI44952
aI44713
aI44455
aI44212
aI44035
aI43758
aI43515
aI43323
aI43005
aI42782
aI42595
aI42370
aI42086
aI41868
aI41564
aI41355
aI41071
aI40882
aI40585
aI40362
aI40160
aI39910
aI39657
aI39396
aI39149
aI38921
aI38665
aI38407
aI38172
aI37914
aI37674
aI37416
aI37167
aI36915
aI36675
aI36424
aI36122
aI35832
aI35675
aI35388
aI35133
aI34907
aI34709
aI34410
aI34236
aI33969
aI33754
aI33508
aI33226
aI33046
aI32785
aI32543
aI32346
aI32116
aI31871
aI31610
aI31424
aI31163
aI30995
aI30754
aI30531
aI30360
aI30091
aI29900
aI29704
aI29491
aI29263
aI29045
aI28908
aI28668
aI28522
aI28251
aI28050
aI27883
aI27695
aI27487
aI27286
aI27160
aI26936
aI26793
aI26531
aI26363
aI26197
aI26045
aI25845
aI25689
aI25529
aI25322
aI25190
aI24947
aI24850
aI24642
aI24490
aI24344
aI24171
aI23996
aI23838
aI23720
aI23503
aI23384
aI23193
aI23087
aI22905
aI22738
aI22642
aI22462
aI22277
aI22193
aI22004
aI21836
aI21743
aI21559
aI21395
aI21310
aI21126
aI20973
aI20857
aI20714
aI20560
aI20463
aI20281
aI20157
aI20050
aI19885
aI19752
aI19648
aI19484
aI19367
aI19245
aI19122
aI19004
aI18862
aI18716
aI18603
aI18479
aI18356
aI18221
aI18142
aI17958
aI17848
aI17747
aI17632
aI17531
aI17401
aI17277
aI17177
aI17054
aI16927
aI16839
aI16697
aI16593
aI16481
aI16337
aI16261
aI16135
aI16046
aI15937
aI15838
aI15733
aI15628
aI15515
aI15423
aI15339
aI15198
aI15143
aI15030
aI14905
aI14849
aI14721
aI14644
aI14540
aI14445
aI14320
aI14265
aI14137
aI14054
aI13967
aI13870
aI13793
aI13695
aI13595
aI13518
aI13429
aI13323
aI13224
aI13174
aI13070
aI12961
aI12905
aI12801
aI12725
aI12632
aI12564
aI12490
aI12398
aI12319
aI12231
aI12152
aI12081
aI11991
aI11916
aI11836
aI11721
aI11647
aI11566
aI11515
aI11438
aI11344
aI11269
aI11218
aI11108
aI11052
aI10991
aI10907
aI10821
aI10747
aI10677
aI10612
aI10529
aI10460
aI10381
aI10325
aI10269
aI10184
aI10126
aI10040
aI9962
aI9913
aI9833
aI9750
aI9699
aI9639
aI9569
aI9474
aI9436
aI9379
aI9310
aI9235
aI9185
aI9119
aI9052
aI8978
aI8940
aI8871
aI8793
aI8761
aI8684
aI8620
aI8584
aI8511
aI8473
aI8401
aI8341
aI8305
aI8233
aI8169
aI8122
aI8084
aI8017
aI7983
aI7921
aI7872
aI7819
aI7773
aI7705
aI7671
aI7618
aI7551
aI7509
aI7471
aI7414
aI7368
aI7328
aI7259
aI7227
aI7182
aI7133
aI7093
aI7038
aI6996
aI6939
aI6908
aI6857
aI6820
aI6767
aI6733
aI6668
aI6632
aI6594
aI6537
aI6511
aI6465
aI6422
aI6375
aI6332
aI6294
aI6252
aI6220
aI6161
aI6134
aI6081
aI6040
aI6012
aI5964
aI5928
aI5883
aI5841
aI5813
aI5764
aI5720
aI5695
aI5651
aI5609
aI5577
aI5536
aI5505
aI5465
aI5422
aI5391
aI5347
aI5306
aI5277
aI5234
aI5209
aI5167
aI5137
aI5100
aI5065
aI5037
aI4999
aI4963
aI4935
aI4900
aI4868
aI4825
aI4804
aI4767
aI4734
aI4703
aI4670
aI4639
aI4613
aI4573
aI4541
aI4514
aI4481
aI4442
aI4425
aI4385
aI4356
aI4328
aI4292
aI4260
aI4237
aI4204
aI4171
aI4168
aI4168
aI4168
aI4168
aI4168
aI4168
aI4168
aI4168
aI4168
aI4168
aI4168
aI4168
aI4168
aI4168
aI4168
aI4168
aI4168
aI4168
aI4168
aI4168
aI4168
aI4168
aI4168
aI4168
aI4168
aI4168
aI4168
aI4168
aI4168
aI4168
aI4168
aI4168
aI4168
aI4168
aI4168
aI4168
aI4168
aI4168
aI4168
aI4168
aI4168
aI4168
aI4168
aI4168
aI4168
aI4168
aI4168
aI4168
aI4168
aI4168
aI4168
aI4168
aI4168
aI4168
aI4168
aI4168
aI4168
aI4168
aI4168
aI4168
aI4168
aI4168
aI4168
aI4168
aI4168
aI4168
aI4168
aI4168
aI4168
aI4168
aI4168
aI4168
aI4168
aI4168
aI4168
aI4168
aI4168
aI4168
aI4168
aI4168
aI4168
aI4168
aI4168
aI4168
aI4168
aI4168
aI4168
aI4168
aI4168
aI4168
aI4168
aI4168
aI4168
aI4168
aI4168
aI4168
aI4168
aI4168
aI4168
aI4168
aI4168
aI4168
aI4168
aI4168
aI4168
aI4168
aI4168
aI4168
aI4168
aI4168
aI4168
aI4168
aI4168
aI4168
aI4168
aI4168
aI4168
aI4168
aI4168
aI4168
aI4168
aI4168
aI4168
aI4168
aI4168
aI4168
aI4168
aI4168
aI4168
aI4168
aI4168
aI4168
aI4168
aI4168
aI4168
aI4168
aI4168
aI4168
aI4168
aI4168
aI4168
aI4168
aI4168
aI4168
aI4168
aI4168
aI4168
aI4168
aI4168
aI4168
aI4168
aI4168
aI4168
aI4168
aI4168
aI4168
aI4168
aI4168
aI4168
aI4168
aI4168
aI4168
aI4168
aI4168
aI4168
aI4168
aI4168
aI4168
aI4168
aI4168
aI4168
aI4168
aI4168
aI4168
aI4168
aI4168
aI4168
aI4168
aI4168
aI4168
aI4168
aI4168
aI4168
aI4168
aI4168
aI4168
asS'velocity_steps'
p5
(lp6
I0
aI-654
aI-1303
aI-1966
aI-2593
aI-3160
aI-3724
aI-4246
aI-4751
aI-5237
aI-5677
aI-6100
aI-6517
aI-6890
aI-7251
aI-7591
aI-7917
aI-8230
aI-8520
aI-8793
aI-9065
aI-9323
aI-9558
aI-9781
aI-9997
aI-10188
aI-10378
aI-10553
aI-10710
aI-10866
aI-11006
aI-11142
aI-11279
aI-11390
aI-11498
aI-11590
aI-11686
aI-11760
aI-11842
aI-11916
aI-11978
aI-12046
aI-12105
aI-12172
aI-12223
aI-12265
aI-12295
aI-12320
aI-12339
aI-12358
aI-12381
aI-12399
aI-12425
aI-12435
aI-12442
aI-12434
aI-12420
aI-12422
aI-12405
aI-12399
aI-12376
aI-12351
aI-12337
aI-12284
aI-12266
aI-12243
aI-12207
aI-12165
aI-12117
aI-12079
aI-12048
aI-11998
aI-11969
aI-11922
aI-11866
aI-11798
aI-11737
aI-11685
aI-11636
aI-11592
aI-11530
aI-11454
aI-11384
aI-11305
aI-11237
aI-11177
aI-11102
aI-11029
aI-10945
aI-10872
aI-10799
aI-10714
aI-10645
aI-10560
aI-10482
aI-10397
aI-10304
aI-10236
aI-10147
aI-10073
aI-9963
aI-9879
aI-9795
aI-9697
aI-9619
aI-9548
aI-9448
aI-9372
aI-9278
aI-9182
aI-9104
aI-9013
aI-8953
aI-8870
aI-8786
aI-8708
aI-8623
aI-8544
aI-8476
aI-8414
aI-8375
aI-8293
aI-8228
aI-8164
aI-8096
aI-8037
aI-7979
aI-7930
aI-7873
aI-7829
aI-7763
aI-7717
aI-7666
aI-7627
aI-7590
aI-7543
aI-7488
aI-7442
aI-7371
aI-7321
aI-7280
aI-7246
aI-7189
aI-7129
aI-7089
aI-7034
aI-6994
aI-6951
aI-6908
aI-6856
aI-6787
aI-6738
aI-6689
aI-6659
aI-6638
aI-6602
aI-6549
aI-6523
aI-6495
aI-6447
aI-6422
aI-6396
aI-6370
aI-6335
aI-6296
aI-6244
aI-6206
aI-6160
aI-6117
aI-6084
aI-6036
aI-5985
aI-5926
aI-5867
aI-5834
aI-5779
aI-5743
aI-5695
aI-5642
aI-5602
aI-5549
aI-5510
aI-5467
aI-5436
aI-5369
aI-5347
aI-5294
aI-5260
aI-5224
aI-5171
aI-5164
aI-5126
aI-5106
aI-5046
aI-5027
aI-4975
aI-4973
aI-4929
aI-4912
aI-4868
aI-4854
aI-4792
aI-4785
aI-4732
aI-4717
aI-4660
aI-4646
aI-4595
aI-4591
aI-4540
aI-4527
aI-4477
aI-4462
aI-4433
aI-4397
aI-4382
aI-4326
aI-4324
aI-4261
aI-4258
aI-4199
aI-4197
aI-4157
aI-4124
aI-4113
aI-4061
aI-4051
aI-4032
aI-3983
aI-3989
aI-3950
aI-3957
aI-3918
aI-3897
aI-3883
aI-3690
aI-3581
aI-3715
aI-3586
aI-3737
aI-3606
aI-3755
aI-3683
aI-3685
aI-3643
aI-3664
aI-3656
aI-3669
aI-3628
aI-3623
aI-3591
aI-3508
aI-3500
aI-3486
aI-3492
aI-3474
aI-3448
aI-3426
aI-3414
aI-3368
aI-3374
aI-3383
aI-3346
aI-3302
aI-3279
aI-3241
aI-3224
aI-3179
aI-3168
aI-3134
aI-3134
aI-3049
aI-3025
aI-2997
aI-2971
aI-2930
aI-2938
aI-2915
aI-2865
aI-2849
aI-2827
aI-2793
aI-2779
aI-2766
aI-2731
aI-2709
aI-2693
aI-2672
aI-2630
aI-2601
aI-2621
aI-2577
aI-2559
aI-2532
aI-2541
aI-2499
aI-2462
aI-2472
aI-2458
aI-2424
aI-2407
aI-2376
aI-2404
aI-2368
aI-2354
aI-2332
aI-2335
aI-2319
aI-2300
aI-2296
aI-2326
aI-2294
aI-2296
aI-2242
aI-2254
aI-2207
aI-2222
aI-2189
aI-2192
aI-2158
aI-2170
aI-2148
aI-2108
aI-2105
aI-2083
aI-2096
aI-2037
aI-2036
aI-2035
aI-2058
aI-2066
aI-2002
aI-2017
aI-2012
aI-2029
aI-2007
aI-1992
aI-1963
aI-1980
aI-1952
aI-1961
aI-1902
aI-1901
aI-1891
aI-1870
aI-1875
aI-1830
aI-1822
aI-1845
aI-1843
aI-1869
aI-1813
aI-1787
aI-1774
aI-1745
aI-1739
aI-1734
aI-1730
aI-1700
aI-1702
aI-1685
aI-1682
aI-1675
aI-1649
aI-1630
aI-1636
aI-1631
aI-1633
aI-1643
aI-1600
aI-1592
aI-1576
aI-1596
aI-1575
aI-1587
aI-1548
aI-1532
aI-1549
aI-1551
aI-1546
aI-1543
aI-1510
aI-1488
aI-1474
aI-1486
aI-1506
aI-1512
aI-1508
aI-1447
aI-2215
aI-2857
aI-3526
aI-4175
aI-4857
aI-5513
aI-6155
aI-6814
aI-7454
aI-8129
aI-8775
aI-9448
aI-10101
aI-10778
aI-11407
aI-12065
aI-12732
aI-13375
aI-14039
aI-14698
aI-15352
aI-16015
aI-16655
aI-17324
aI-17991
aI-18643
aI-19291
aI-19959
aI-20618
aI-21268
aI-21930
aI-22599
aI-23264
aI-23907
aI-24572
aI-25228
aI-25881
aI-26526
aI-27194
aI-27847
aI-28513
aI-29191
aI-29842
aI-30526
aI-31153
aI-31818
aI-32462
aI-33121
aI-33764
aI-34421
aI-35079
aI-35740
aI-36402
aI-37062
aI-37733
aI-38375
aI-39046
aI-39692
aI-40344
aI-41018
aI-41668
aI-42328
aI-42979
aI-43647
aI-44300
aI-44954
aI-45611
aI-46265
aI-46938
aI-47578
aI-48232
aI-48878
aI-49513
aI-50196
aI-50865
aI-51509
aI-52188
aI-52828
aI-53493
aI-54163
aI-54805
aI-55461
aI-56116
aI-56769
aI-57448
aI-58095
aI-58771
aI-59418
aI-60094
aI-60735
aI-61378
aI-62062
aI-62736
aI-63393
aI-64043
aI-64702
aI-65365
aI-66016
aI-66671
aI-67341
aI-68020
aI-68663
aI-69315
aI-69983
aI-70627
aI-71266
aI-71930
aI-72577
aI-73248
aI-73900
aI-74551
aI-75212
aI-75876
aI-76539
aI-77199
aI-77845
aI-78500
aI-79137
aI-79786
aI-80459
aI-81121
aI-81786
aI-82423
aI-83104
aI-83745
aI-84409
aI-85066
aI-85732
aI-86399
aI-87028
aI-87708
aI-88363
aI-89015
aI-89688
aI-90328
aI-91009
aI-91646
aI-92291
aI-92971
aI-93615
aI-94281
aI-94927
aI-95587
aI-96272
aI-96936
aI-97570
aI-98234
aI-98907
aI-99564
aI-100213
aI-100871
aI-101544
aI-102159
aI-102825
aI-103475
aI-104155
aI-104793
aI-105444
aI-106116
aI-106768
aI-107413
aI-108082
aI-108712
aI-109392
aI-110030
aI-110684
aI-111368
aI-112006
aI-112657
aI-113299
aI-113957
aI-114638
aI-115290
aI-115958
aI-116609
aI-117288
aI-117928
aI-118579
aI-119247
aI-119923
aI-120555
aI-121224
aI-121861
aI-122555
asS'time'
p7
(lp8
F1366494602.634434
aF1366494604.35492
aF1366494604.378451
aF1366494604.389743
aF1366494604.413548
aF1366494604.436947
aF1366494604.458251
aF1366494604.469785
aF1366494604.493844
aF1366494604.515227
aF1366494604.535055
aF1366494604.555001
aF1366494604.573435
aF1366494604.593916
aF1366494604.611949
aF1366494604.63315
aF1366494604.655018
aF1366494604.669357
aF1366494604.695444
aF1366494604.714954
aF1366494604.732967
aF1366494604.752796
aF1366494604.77555
aF1366494604.790765
aF1366494604.813414
aF1366494604.83546
aF1366494604.848918
aF1366494604.87049
aF1366494604.895759
aF1366494604.909871
aF1366494604.935839
aF1366494604.949482
aF1366494604.970665
aF1366494604.993559
aF1366494605.0148
aF1366494605.029932
aF1366494605.053812
aF1366494605.074389
aF1366494605.0907
aF1366494605.117535
aF1366494605.13591
aF1366494605.151575
aF1366494605.170191
aF1366494605.193505
aF1366494605.211341
aF1366494605.236091
aF1366494605.253126
aF1366494605.276005
aF1366494605.291171
aF1366494605.315436
aF1366494605.333205
aF1366494605.349519
aF1366494605.369589
aF1366494605.389783
aF1366494605.410631
aF1366494605.43054
aF1366494605.448866
aF1366494605.469397
aF1366494605.489893
aF1366494605.508746
aF1366494605.529452
aF1366494605.54866
aF1366494605.569333
aF1366494605.589607
aF1366494605.609942
aF1366494605.629526
aF1366494605.649795
aF1366494605.674372
aF1366494605.698154
aF1366494605.71093
aF1366494605.734434
aF1366494605.755812
aF1366494605.774506
aF1366494605.791023
aF1366494605.815842
aF1366494605.830411
aF1366494605.852961
aF1366494605.871235
aF1366494605.892136
aF1366494605.916315
aF1366494605.931656
aF1366494605.954184
aF1366494605.97542
aF1366494605.992391
aF1366494606.012804
aF1366494606.034397
aF1366494606.057683
aF1366494606.074429
aF1366494606.097881
aF1366494606.113307
aF1366494606.135176
aF1366494606.155788
aF1366494606.171532
aF1366494606.196649
aF1366494606.214715
aF1366494606.233245
aF1366494606.253937
aF1366494606.27592
aF1366494606.297163
aF1366494606.310628
aF1366494606.334427
aF1366494606.349006
aF1366494606.376455
aF1366494606.396926
aF1366494606.414249
aF1366494606.433649
aF1366494606.455255
aF1366494606.476442
aF1366494606.490018
aF1366494606.513786
aF1366494606.529392
aF1366494606.557919
aF1366494606.576503
aF1366494606.594838
aF1366494606.611981
aF1366494606.634723
aF1366494606.652461
aF1366494606.670893
aF1366494606.695107
aF1366494606.710591
aF1366494606.73938
aF1366494606.750999
aF1366494606.775876
aF1366494606.794411
aF1366494606.812072
aF1366494606.833533
aF1366494606.855005
aF1366494606.87505
aF1366494606.889995
aF1366494606.917519
aF1366494606.932847
aF1366494606.957207
aF1366494606.970742
aF1366494606.994461
aF1366494607.016407
aF1366494607.029012
aF1366494607.05285
aF1366494607.077589
aF1366494607.088754
aF1366494607.114288
aF1366494607.137134
aF1366494607.149903
aF1366494607.175423
aF1366494607.198139
aF1366494607.210229
aF1366494607.236357
aF1366494607.257761
aF1366494607.274386
aF1366494607.294861
aF1366494607.317097
aF1366494607.33123
aF1366494607.358085
aF1366494607.376285
aF1366494607.392146
aF1366494607.416934
aF1366494607.43714
aF1366494607.452998
aF1366494607.477753
aF1366494607.495678
aF1366494607.51445
aF1366494607.533709
aF1366494607.551931
aF1366494607.574183
aF1366494607.597171
aF1366494607.614918
aF1366494607.634622
aF1366494607.654216
aF1366494607.676031
aF1366494607.688816
aF1366494607.718857
aF1366494607.736938
aF1366494607.753653
aF1366494607.77289
aF1366494607.78993
aF1366494607.812075
aF1366494607.833284
aF1366494607.850731
aF1366494607.872174
aF1366494607.894314
aF1366494607.909913
aF1366494607.935248
aF1366494607.95395
aF1366494607.974339
aF1366494608.000352
aF1366494608.014438
aF1366494608.037985
aF1366494608.054545
aF1366494608.075214
aF1366494608.094087
aF1366494608.114136
aF1366494608.134436
aF1366494608.156303
aF1366494608.174245
aF1366494608.190681
aF1366494608.218584
aF1366494608.229557
aF1366494608.252379
aF1366494608.27722
aF1366494608.288819
aF1366494608.314775
aF1366494608.33064
aF1366494608.352026
aF1366494608.371962
aF1366494608.397751
aF1366494608.409434
aF1366494608.4364
aF1366494608.454268
aF1366494608.47304
aF1366494608.494219
aF1366494608.510826
aF1366494608.532586
aF1366494608.554621
aF1366494608.571681
aF1366494608.591664
aF1366494608.615682
aF1366494608.63811
aF1366494608.64963
aF1366494608.673559
aF1366494608.698851
aF1366494608.712051
aF1366494608.736441
aF1366494608.75444
aF1366494608.776711
aF1366494608.793038
aF1366494608.810873
aF1366494608.83336
aF1366494608.852619
aF1366494608.874673
aF1366494608.894308
aF1366494608.912051
aF1366494608.93449
aF1366494608.953647
aF1366494608.97371
aF1366494608.993762
aF1366494609.015192
aF1366494609.035999
aF1366494609.049708
aF1366494609.070984
aF1366494609.096123
aF1366494609.116866
aF1366494609.130584
aF1366494609.160655
aF1366494609.175566
aF1366494609.191944
aF1366494609.214799
aF1366494609.23774
aF1366494609.25811
aF1366494609.277268
aF1366494609.29466
aF1366494609.317636
aF1366494609.336492
aF1366494609.358431
aF1366494609.374476
aF1366494609.390223
aF1366494609.414383
aF1366494609.430917
aF1366494609.455575
aF1366494609.477954
aF1366494609.492114
aF1366494609.515335
aF1366494609.540065
aF1366494609.555027
aF1366494609.572655
aF1366494609.59352
aF1366494609.621727
aF1366494609.633824
aF1366494609.651417
aF1366494609.672336
aF1366494609.695882
aF1366494609.711736
aF1366494609.732593
aF1366494609.753748
aF1366494609.777796
aF1366494609.790346
aF1366494609.813037
aF1366494609.839658
aF1366494609.850391
aF1366494609.876735
aF1366494609.898256
aF1366494609.910834
aF1366494609.936221
aF1366494609.94969
aF1366494609.975355
aF1366494609.996579
aF1366494610.00966
aF1366494610.035824
aF1366494610.059652
aF1366494610.076986
aF1366494610.091089
aF1366494610.116621
aF1366494610.129526
aF1366494610.153436
aF1366494610.172346
aF1366494610.192683
aF1366494610.21103
aF1366494610.237823
aF1366494610.251364
aF1366494610.272689
aF1366494610.299902
aF1366494610.316683
aF1366494610.332644
aF1366494610.356199
aF1366494610.375485
aF1366494610.391878
aF1366494610.420921
aF1366494610.434329
aF1366494610.453897
aF1366494610.475001
aF1366494610.491732
aF1366494610.515578
aF1366494610.533925
aF1366494610.558534
aF1366494610.571852
aF1366494610.593708
aF1366494610.610333
aF1366494610.633658
aF1366494610.64921
aF1366494610.67829
aF1366494610.694592
aF1366494610.711988
aF1366494610.738153
aF1366494610.750102
aF1366494610.771723
aF1366494610.791644
aF1366494610.81427
aF1366494610.83506
aF1366494610.853034
aF1366494610.873705
aF1366494610.889199
aF1366494610.917882
aF1366494610.93135
aF1366494610.956968
aF1366494610.977252
aF1366494610.991171
aF1366494611.015046
aF1366494611.032391
aF1366494611.054742
aF1366494611.076215
aF1366494611.090407
aF1366494611.114718
aF1366494611.137607
aF1366494611.150292
aF1366494611.173524
aF1366494611.195484
aF1366494611.212442
aF1366494611.233817
aF1366494611.250317
aF1366494611.272351
aF1366494611.296117
aF1366494611.31252
aF1366494611.336173
aF1366494611.358247
aF1366494611.374513
aF1366494611.397987
aF1366494611.41198
aF1366494611.436365
aF1366494611.453408
aF1366494611.475181
aF1366494611.495236
aF1366494611.511446
aF1366494611.534189
aF1366494611.55509
aF1366494611.571568
aF1366494611.592256
aF1366494611.612002
aF1366494611.638393
aF1366494611.650833
aF1366494611.673785
aF1366494611.694255
aF1366494611.713172
aF1366494611.734026
aF1366494611.753503
aF1366494611.769407
aF1366494611.79476
aF1366494611.815156
aF1366494611.831983
aF1366494611.853478
aF1366494611.878976
aF1366494611.889585
aF1366494611.915325
aF1366494611.934172
aF1366494611.952163
aF1366494611.976128
aF1366494611.997706
aF1366494612.013048
aF1366494612.035677
aF1366494612.057419
aF1366494612.071653
aF1366494612.098127
aF1366494612.117743
aF1366494612.132882
aF1366494612.155665
aF1366494612.174969
aF1366494612.193926
aF1366494612.214919
aF1366494612.235471
aF1366494612.258719
aF1366494612.270016
aF1366494612.294019
aF1366494612.313012
aF1366494612.336437
aF1366494612.353695
aF1366494612.375596
aF1366494612.397706
aF1366494612.410774
aF1366494612.433341
aF1366494612.454047
aF1366494612.470164
aF1366494612.496525
aF1366494612.51354
aF1366494612.531245
aF1366494612.558246
aF1366494612.571826
aF1366494612.594991
aF1366494612.611292
aF1366494612.636609
aF1366494612.650501
aF1366494612.674837
aF1366494612.691466
aF1366494612.71554
aF1366494612.730329
aF1366494612.757754
aF1366494612.77315
aF1366494612.793417
aF1366494612.814594
aF1366494612.830976
aF1366494612.85418
aF1366494612.875532
aF1366494612.897361
aF1366494612.912627
aF1366494612.932963
aF1366494612.953092
aF1366494612.977405
aF1366494612.992491
aF1366494613.013703
aF1366494613.04007
aF1366494613.050299
aF1366494613.079824
aF1366494613.094606
aF1366494613.114323
aF1366494613.138995
aF1366494613.14966
aF1366494613.174294
aF1366494613.198999
aF1366494613.211002
aF1366494613.242437
aF1366494613.256369
aF1366494613.270813
aF1366494613.297024
aF1366494613.318296
aF1366494613.331526
aF1366494613.350242
aF1366494613.377837
aF1366494613.393622
aF1366494613.414775
aF1366494613.431333
aF1366494613.451306
aF1366494613.476623
aF1366494613.497841
aF1366494613.512125
aF1366494613.538073
aF1366494613.55749
aF1366494613.574042
aF1366494613.596397
aF1366494613.614377
aF1366494613.628961
aF1366494613.658144
aF1366494613.67076
aF1366494613.689597
aF1366494613.716462
aF1366494613.733225
aF1366494613.750322
aF1366494613.782333
aF1366494613.79721
aF1366494613.811643
aF1366494613.839879
aF1366494613.851161
aF1366494613.875363
aF1366494613.89418
aF1366494613.913166
aF1366494613.940875
aF1366494613.95207
aF1366494613.978194
aF1366494613.991596
aF1366494614.015256
aF1366494614.032041
aF1366494614.049986
aF1366494614.075881
aF1366494614.095101
aF1366494614.112048
aF1366494614.135418
aF1366494614.150257
aF1366494614.173658
aF1366494614.189861
aF1366494614.217773
aF1366494614.23686
aF1366494614.255025
aF1366494614.273179
aF1366494614.292477
aF1366494614.314408
aF1366494614.329722
aF1366494614.357832
aF1366494614.371912
aF1366494614.397482
aF1366494614.411693
aF1366494614.434145
aF1366494614.453143
aF1366494614.469523
aF1366494614.495576
aF1366494614.514788
aF1366494614.536434
aF1366494614.558111
aF1366494614.579563
aF1366494614.594183
aF1366494614.615871
aF1366494614.639652
aF1366494614.652415
aF1366494614.67736
aF1366494614.698377
aF1366494614.715618
aF1366494614.739668
aF1366494614.7576
aF1366494614.774923
aF1366494614.796576
aF1366494614.81848
aF1366494614.832442
aF1366494614.856303
aF1366494614.875468
aF1366494614.894752
aF1366494614.916309
aF1366494614.936363
aF1366494614.954576
aF1366494614.975999
aF1366494614.997694
aF1366494615.01477
aF1366494615.036389
aF1366494615.05044
aF1366494615.077526
aF1366494615.101285
aF1366494615.118923
aF1366494615.141625
aF1366494615.153972
aF1366494615.179112
aF1366494615.194165
aF1366494615.219564
aF1366494615.238793
aF1366494615.256081
aF1366494615.276973
aF1366494615.298966
aF1366494615.310941
aF1366494615.340007
aF1366494615.359539
aF1366494615.374443
aF1366494615.399899
aF1366494615.418833
aF1366494615.434476
aF1366494615.456836
aF1366494615.476013
aF1366494615.49533
aF1366494615.517614
aF1366494615.541519
aF1366494615.555905
aF1366494615.570836
aF1366494615.5909
aF1366494615.611088
aF1366494615.629549
aF1366494615.650081
aF1366494615.66999
aF1366494615.689806
aF1366494615.710408
aF1366494615.730426
aF1366494615.750102
aF1366494615.77033
asS'velocity'
p9
(lp10
I0
aF-0.017928727865219117
aF-0.035728217363357545
aF-0.053875199556350714
aF-0.07105707645416261
aF-0.08658666729927064
aF-0.10204971194267275
aF-0.11634876489639284
aF-0.13018249392509462
aF-0.1435088074207306
aF-0.15555834770202637
aF-0.167148597240448
aF-0.17857414364814758
aF-0.18880812644958495
aF-0.1986983036994934
aF-0.20801078975200651
aF-0.21694128572940824
aF-0.22550794124603268
aF-0.23347523689270017
aF-0.24094675183296202
aF-0.24839319527149198
aF-0.25547712504863734
aF-0.26189291775226586
aF-0.26802332520484917
aF-0.27392719686031336
aF-0.27917493224143974
aF-0.2843805688619613
aF-0.2891571843624114
aF-0.2934789729118346
aF-0.29773337304592123
aF-0.301584905385971
aF-0.30529904007911673
aF-0.3090506589412688
aF-0.312106513082981
aF-0.3150648036599158
aF-0.31758946061134324
aF-0.32020174413919433
aF-0.3222405375540255
aF-0.3244869786500929
aF-0.32651687636971455
aF-0.32822119638323766
aF-0.33008389204740507
aF-0.33169367834925634
aF-0.3335309375822542
aF-0.3349126654863356
aF-0.33606339484453185
aF-0.336904034540057
aF-0.33757802255451663
aF-0.3381151008233426
aF-0.3386342155560849
aF-0.3392548431456087
aF-0.3397331565245984
aF-0.34047050941735485
aF-0.3407388300448654
aF-0.3409139291197059
aF-0.34069612029939866
aF-0.3403202776610849
aF-0.340371733009815
aF-0.3399172407388685
aF-0.33975914629176235
aF-0.33911741377785776
aF-0.3384214360453186
aF-0.33803641216829394
aF-0.33659849541261766
aF-0.33609453456476307
aF-0.3354598873294888
aF-0.33449265571311093
aF-0.3333237735368309
aF-0.33200666913762666
aF-0.3309832035191355
aF-0.3301302140392361
aF-0.3287688016332684
aF-0.32796316320076563
aF-0.3266771560348568
aF-0.3251303062774239
aF-0.32328613648191074
aF-0.3216074720956383
aF-0.3201932440139351
aF-0.3188422184623776
aF-0.31762252802029234
aF-0.31593227619305236
aF-0.3138457758165894
aF-0.31194439673796276
aF-0.30975940773263555
aF-0.30789397710934263
aF-0.3062584682740269
aF-0.3042047759331761
aF-0.30221244359388927
aF-0.2999036539532242
aF-0.29790263647213555
aF-0.2959091793932018
aF-0.29357109213247873
aF-0.2916923325695095
aF-0.28934436434879873
aF-0.2872296273149547
aF-0.2848808726109561
aF-0.2823387866653499
aF-0.28048061469569774
aF-0.2780349946953353
aF-0.2760047117806968
aF-0.2729866255261001
aF-0.2707077724672851
aF-0.2683901062048969
aF-0.26570338690653417
aF-0.2635793190635738
aF-0.26164047459140394
aF-0.25889133909717177
aF-0.25680869588628386
aF-0.25423545578494644
aF-0.25159188637509916
aF-0.24947341674938772
aF-0.24697250569239232
aF-0.24531757334247203
aF-0.2430483817495403
aF-0.24074574181809993
aF-0.23860659459605785
aF-0.23628175059333414
aF-0.23413117149844737
aF-0.2322680217958984
aF-0.23054368460550875
aF-0.22948883982375234
aF-0.22722850697115035
aF-0.2254693046398458
aF-0.22369397269561858
aF-0.22183080406859487
aF-0.2202266855724153
aF-0.21863954382017226
aF-0.2172832946665582
aF-0.2157365925796327
aF-0.2145244143344459
aF-0.2127193900384006
aF-0.2114684402383861
aF-0.2100723680295047
aF-0.20899030098691554
aF-0.2079887108691034
aF-0.20669740127399536
aF-0.20517537521198365
aF-0.20391711177304359
aF-0.20197157667949767
aF-0.20061482893303006
aF-0.199494916591793
aF-0.19855943823233216
aF-0.19700411090627282
aF-0.1953592605330047
aF-0.19425297202542394
aF-0.19273970620706646
aF-0.19164434695616334
aF-0.19046401606872648
aF-0.18929031463339896
aF-0.187861970234662
aF-0.18598533423617453
aF-0.18462865324690908
aF-0.18329269738867848
aF-0.18247059362009138
aF-0.1818878603167829
aF-0.18090178305283158
aF-0.1794499991275367
aF-0.17873805770650475
aF-0.17798688108101457
aF-0.17664831692352861
aF-0.17597375893965334
aF-0.1752713874913749
aF-0.17455512719228836
aF-0.1736037420667705
aF-0.17252343783155055
aF-0.17109327265992733
aF-0.17006458507850739
aF-0.16878930019214722
aF-0.1676206404902038
aF-0.16671537632122607
aF-0.1654030586220321
aF-0.16399636963382333
aF-0.16237304398789973
aF-0.1607792671956119
aF-0.15985522614791958
aF-0.1583679543621835
aF-0.15737262019887538
aF-0.1560566915012893
aF-0.15460716703906627
aF-0.15351885715499491
aF-0.15205874154344173
aF-0.1509897784329948
aF-0.1498206817544994
aF-0.1489722521044311
aF-0.1471208998002109
aF-0.1465207219682631
aF-0.14507680332288117
aF-0.14414218505844445
aF-0.14315481213852735
aF-0.14168837172910542
aF-0.14151898233219953
aF-0.1404661419056353
aF-0.1399311942420897
aF-0.1382776459120211
aF-0.13775204265490146
aF-0.13634192476049037
aF-0.13626667093019904
aF-0.13506835471373022
aF-0.13460770844947517
aF-0.1334019476128739
aF-0.13302409849595248
aF-0.131325235883705
aF-0.131120676915161
aF-0.1296664262516421
aF-0.1292566434247416
aF-0.1277089465362948
aF-0.1273019557027143
aF-0.12591359707992492
aF-0.12580600646790085
aF-0.1244188476866108
aF-0.12405730770435153
aF-0.12268997670616923
aF-0.12228577540721712
aF-0.12148779304232415
aF-0.12049246029462632
aF-0.12006810055579957
aF-0.11855975018348512
aF-0.11849060704931584
aF-0.11677317922934857
aF-0.11667859072796968
aF-0.1150775451492515
aF-0.11501777777448265
aF-0.11392461778596012
aF-0.11302077623084156
aF-0.11270690692588656
aF-0.11129367185756533
aF-0.11100882582366436
aF-0.11049204159527987
aF-0.1091413227096197
aF-0.10929862586781353
aF-0.1082469023577866
aF-0.10843611573800414
aF-0.10737435845658153
aF-0.10679272389039367
aF-0.10639695206657021
aF-0.1011101452447471
aF-0.09813690403476327
aF-0.10180243441835016
aF-0.09826112577691644
aF-0.10240607688203424
aF-0.09881010124459833
aF-0.1028977290727195
aF-0.1009178545512256
aF-0.10099409028887718
aF-0.0998454251140353
aF-0.10041808005422323
aF-0.10019765226170389
aF-0.10055498683825104
aF-0.09943303698673812
aF-0.09928309659473566
aF-0.09841537768952517
aF-0.09613849992863803
aF-0.09591634701006084
aF-0.09552352565340667
aF-0.09569208680652051
aF-0.09520126680843502
aF-0.09448314155451923
aF-0.09389965596608787
aF-0.09355804353021055
aF-0.09230451955459981
aF-0.09247041926719217
aF-0.09270670129917531
aF-0.09169322206638722
aF-0.09050205542705922
aF-0.08985832936130433
aF-0.08882303952239423
aF-0.0883455333020535
aF-0.08711936845444111
aF-0.08680927324108748
aF-0.08589820641092924
aF-0.08589305377565293
aF-0.08355692154727845
aF-0.08289729013107686
aF-0.08212285480461984
aF-0.08141896321438222
aF-0.08028347617946534
aF-0.08052177195437221
aF-0.0798907270003107
aF-0.07852328796870975
aF-0.07807517153210906
aF-0.07748045780695943
aF-0.0765345970634368
aF-0.0761503029335287
aF-0.07580454462207822
aF-0.07483269252814322
aF-0.07423487507738143
aF-0.07379310798831254
aF-0.07322446656413346
aF-0.07208094258792669
aF-0.0712764493841675
aF-0.07181661629117995
aF-0.07061616071499854
aF-0.07014034290797978
aF-0.06939668078906804
aF-0.06964027215726643
aF-0.0684862156677988
aF-0.0674597526807335
aF-0.06773359178565412
aF-0.06736666976474195
aF-0.06644021301530272
aF-0.06595376613549858
aF-0.06511316436342865
aF-0.06588752302341133
aF-0.06490984859876305
aF-0.06452624912373692
aF-0.06390900033526092
aF-0.06398698651697457
aF-0.0635541390394789
aF-0.06304430270101846
aF-0.06293602177407563
aF-0.06374192283954443
aF-0.06286335402633966
aF-0.0629223840078336
aF-0.06145235823001684
aF-0.06177136001642765
aF-0.06048925561364712
aF-0.06088925623800577
aF-0.06000241966452421
aF-0.060082622137851725
aF-0.059148100283927925
aF-0.059465784248895655
aF-0.058867250946350105
aF-0.057763766688294416
aF-0.05768029195722163
aF-0.05709247512277186
aF-0.05743780793156445
aF-0.05583114699926198
aF-0.05581269524758652
aF-0.055777127295732205
aF-0.05639475218951673
aF-0.05662829423323244
aF-0.0548673270083961
aF-0.05528548201546044
aF-0.05514871609397204
aF-0.05559836507774861
aF-0.05500346553511889
aF-0.05459317781962426
aF-0.053806465873494455
aF-0.05427723770029814
aF-0.05349996109493048
aF-0.05373702852986724
aF-0.05212206928990752
aF-0.052113090564380106
aF-0.051825585082987964
aF-0.05125160729221505
aF-0.05139707357331615
aF-0.05016801290854316
aF-0.049933115678722675
aF-0.05057905963330966
aF-0.050498829108546195
aF-0.05121216714091104
aF-0.049682451334665235
aF-0.0489788053900699
aF-0.04862595490820211
aF-0.047819230628083166
aF-0.047657493107835465
aF-0.04753449057869118
aF-0.047427481857011726
aF-0.04660021632618706
aF-0.046634865507366764
aF-0.046191563561442
aF-0.04609149552124987
aF-0.0459065412095512
aF-0.04518769749614845
aF-0.044664005610975124
aF-0.044850100513430934
aF-0.044714005311834316
aF-0.04476778807758788
aF-0.04503154796257119
aF-0.04386649359657864
aF-0.043621241680229704
aF-0.043196799239958325
aF-0.043740761174703637
aF-0.043180179602349794
aF-0.04349013057246307
aF-0.042422152801300086
aF-0.04200415854051212
aF-0.04245040529116491
aF-0.04250785858079294
aF-0.04237021639652053
aF-0.04228393471508721
aF-0.04139647206931809
aF-0.04079264561354617
aF-0.04038881621032456
aF-0.04072841833054522
aF-0.04128128817945221
aF-0.0414395569701443
aF-0.041334131971816214
aF-0.03966650159738461
aF-0.060707263068179286
aF-0.07829450281045834
aF-0.09663927109620968
aF-0.11440657289407649
aF-0.13309764416597286
aF-0.15105957658670346
aF-0.16866599233529966
aF-0.18670897634408873
aF-0.20426663072488707
aF-0.22273474128625792
aF-0.24045122177980346
aF-0.2588942888536255
aF-0.27677053482911984
aF-0.29533380897424616
aF-0.31255837948701776
aF-0.3305810406961242
aF-0.34887375028512874
aF-0.3664801088132659
aF-0.38468985946557915
aF-0.402734226302127
aF-0.42066559703729545
aF-0.43882825882814325
aF-0.45636145265481864
aF-0.47469660551927484
aF-0.4929684785165588
aF-0.5108254602708617
aF-0.5285899356164733
aF-0.5468821922101775
aF-0.5649353686132231
aF-0.5827674618520537
aF-0.6008966365613738
aF-0.6192383709707061
aF-0.6374497428693572
aF-0.6550789669313232
aF-0.6732837799348632
aF-0.6912656513013641
aF-0.7091478756227294
aF-0.7268218878068725
aF-0.7451366761483947
aF-0.7630185750283996
aF-0.7812821749009887
aF-0.7998389938630859
aF-0.8176754990377227
aF-0.8364291146554749
aF-0.8536064043798248
aF-0.8718337646283905
aF-0.8894739881315032
aF-0.9075333741464416
aF-0.9251402476587097
aF-0.9431589117803375
aF-0.961166683749179
aF-0.9792775049962799
aF-0.9974156120576659
aF-1.0155008819856444
aF-1.033891461209277
aF-1.0514800778188504
aF-1.0698637023725308
aF-1.087575621918658
aF-1.1054471531667507
aF-1.123914416150073
aF-1.1417085436143675
aF-1.1598092737951078
aF-1.17764501126192
aF-1.1959374585904874
aF-1.2138321200170317
aF-1.2317623344220914
aF-1.249761023835162
aF-1.2676646295347012
aF-1.2861269763269223
aF-1.3036383715429105
aF-1.321583340481738
aF-1.3392741993226804
aF-1.356658203915576
aF-1.3753923705377378
aF-1.3937252274312772
aF-1.4113666549482144
aF-1.4299777296342648
aF-1.447506635502795
aF-1.4657133844651973
aF-1.4840729513921536
aF-1.5016781130590238
aF-1.519642786101321
aF-1.5375811162748134
aF-1.5554768982686793
aF-1.5740868547715938
aF-1.591810000256518
aF-1.61033736379526
aF-1.6280732098378932
aF-1.6465931800164972
aF-1.6641415622987543
aF-1.6817645517148767
aF-1.7005254033365045
aF-1.7189751127519404
aF-1.7369788137235438
aF-1.7547896364488398
aF-1.7728461471357142
aF-1.7910073760309015
aF-1.80885271699808
aF-1.8267865494050777
aF-1.8451470878877436
aF-1.863755572155932
aF-1.881387865857104
aF-1.8992500797071252
aF-1.9175544873037134
aF-1.935193697527865
aF-1.9527004876889977
aF-1.9708956137456688
aF-1.988634616450289
aF-2.0070055118360313
aF-2.0248683515348227
aF-2.0427244106092246
aF-2.0608325830259115
aF-2.0790146163263112
aF-2.097186464385012
aF-2.1152601185598168
aF-2.1329588666715416
aF-2.1509254947461875
aF-2.168354746417025
aF-2.1861566880502497
aF-2.2046013632573875
aF-2.2227236429014
aF-2.2409437039651663
aF-2.2584034648694784
aF-2.277055540398577
aF-2.2946302679338246
aF-2.312807081059435
aF-2.3308308628358634
aF-2.3490717914857657
aF-2.367337324933031
aF-2.384581913069704
aF-2.403209196642855
aF-2.4211475923814567
aF-2.4390364650049
aF-2.4574662235536366
aF-2.474996098593691
aF-2.4936534693994314
aF-2.511102546767214
aF-2.528782034234026
aF-2.547416763619402
aF-2.5650713887967855
aF-2.5833194294729025
aF-2.6010150864877493
aF-2.619106768683413
aF-2.6378560891904623
aF-2.656072893456438
aF-2.673441182688692
aF-2.691631335333803
aF-2.7100574675359517
aF-2.728070385769823
aF-2.745855194643953
aF-2.7638669863500382
aF-2.782319095448473
aF-2.7991782668390064
aF-2.8174294415273455
aF-2.8352321854390885
aF-2.8538555506028915
aF-2.8713507107057357
aF-2.889172185973146
aF-2.9075823357858446
aF-2.9254528263368393
aF-2.9431282511510637
aF-2.961472403124788
aF-2.9787276879110123
aF-2.9973436489858414
aF-3.0148312559880996
aF-3.0327667585172438
aF-3.051502970770814
aF-3.068981299714067
aF-3.0868258741655135
aF-3.1043988052167677
aF-3.12243727834604
aF-3.1410819640912795
aF-3.158965089634874
aF-3.1772596362390306
aF-3.195089598015764
aF-3.213708824233034
aF-3.231236955241182
aF-3.249071108416536
aF-3.2673797705926684
aF-3.2859060588636186
aF-3.303227341488817
aF-3.3215568247594622
aF-3.339001326874712
aF-3.358033662156084
asS'position'
p11
(lp12
F1.3472854
aF1.347258
aF1.3468196000000001
aF1.3464634000000002
aF1.3451756000000001
aF1.3434768000000001
aF1.3416136
aF1.3403806
aF1.3377776000000001
aF1.3350102000000001
aF1.3321058000000001
aF1.3290096
aF1.3258312
aF1.3221322000000002
aF1.3187346000000002
aF1.3144876
aF1.3099118
aF1.3067882000000002
aF1.3008972
aF1.2963214
aF1.2919374000000001
aF1.2870054000000002
aF1.2811418
aF1.2771688
aF1.2710586000000001
aF1.265058
aF1.2612494
aF1.2551392000000001
aF1.2477138
aF1.2435764
aF1.2358496
aF1.2316848
aF1.2251362000000001
aF1.218067
aF1.2114088
aF1.2065590000000002
aF1.1989692
aF1.1923110000000001
aF1.1870502
aF1.1783370000000002
aF1.1722268
aF1.167103
aF1.160938
aF1.1531564
aF1.1471832000000002
aF1.1388536
aF1.133127
aF1.1253454
aF1.1201668
aF1.1120290000000002
aF1.1059188
aF1.100384
aF1.093534
aF1.0866018000000002
aF1.0794504
aF1.0726826
aF1.0664354
aF1.0594210000000002
aF1.0523518
aF1.0459128
aF1.0388436
aF1.0322676000000002
aF1.0251984
aF1.0183758
aF1.011471
aF1.004895
aF0.9980176000000001
aF0.9897428
aF0.9817968
aF0.9774950000000001
aF0.9696312
aF0.9626442000000001
aF0.9564518000000001
aF0.9510266
aF0.9428340000000001
aF0.9380664000000001
aF0.9307506000000001
aF0.9248596000000001
aF0.9181192
aF0.9103924000000001
aF0.9054604
aF0.898309
aF0.8916782000000001
aF0.8862804000000001
aF0.8799784
aF0.8732654000000001
aF0.866114
aF0.8610176
aF0.8538662
aF0.8492630000000001
aF0.8426596000000001
aF0.8365494000000001
aF0.831864
aF0.8244934
aF0.8192600000000001
aF0.8138896000000001
aF0.8080534
aF0.8018062
aF0.795833
aF0.7920792000000001
aF0.7855032000000001
aF0.7815028
aF0.7740774
aF0.7685700000000001
aF0.7639942000000001
aF0.758843
aF0.7531438
aF0.7476364000000001
aF0.7441840000000001
aF0.7380464000000001
aF0.7341282
aF0.7269494000000001
aF0.7223462
aF0.7177978
aF0.7136330000000001
aF0.708153
aF0.7038786
aF0.6994946000000001
aF0.6938228000000001
aF0.6902060000000001
aF0.6835478
aF0.68089
aF0.6751908000000001
aF0.671026
aF0.6670256
aF0.6622854
aF0.6574904
aF0.6531612
aF0.6499280000000001
aF0.6439822000000001
aF0.6407216
aF0.6354882000000001
aF0.6325838
aF0.6275970000000001
aF0.6230212
aF0.6203908
aF0.6154588000000001
aF0.6103898000000001
aF0.6080882000000001
aF0.6029096
aF0.5983064
aF0.5957582
aF0.5907166
aF0.586223
aF0.583894
aF0.5788524
aF0.5746602000000001
aF0.5714818
aF0.5675636000000001
aF0.5633440000000001
aF0.5606862
aF0.5556994000000001
aF0.5523018000000001
aF0.54937
aF0.544849
aF0.5412048
aF0.5383552
aF0.5338616
aF0.5306558
aF0.527313
aF0.5239428
aF0.5207096
aF0.5168188
aF0.5128184
aF0.5097222
aF0.5063246
aF0.5029544
aF0.4992554
aF0.49709080000000005
aF0.4920492
aF0.48903520000000006
aF0.48626780000000003
aF0.4831168
aF0.48034940000000004
aF0.47678740000000003
aF0.4733898
aF0.4706498
aF0.4672796
aF0.46379980000000004
aF0.46138860000000004
aF0.4574978
aF0.45464820000000006
aF0.4515794
aF0.4476338
aF0.44555140000000004
aF0.442099
aF0.4396604
aF0.43667380000000006
aF0.43396120000000005
aF0.43108420000000003
aF0.4282072
aF0.425111
aF0.4225902
aF0.4202886
aF0.41642520000000005
aF0.4149182
aF0.411822
aF0.408397
aF0.4068626
aF0.40335540000000003
aF0.40124560000000004
aF0.39839600000000003
aF0.395793
aF0.39236800000000005
aF0.390861
aF0.3873538
aF0.3850796
aF0.38269580000000003
aF0.38003800000000004
aF0.37792820000000005
aF0.37524300000000005
aF0.37250300000000003
aF0.37039320000000003
aF0.3679546
aF0.36505020000000005
aF0.36233760000000004
aF0.3609676
aF0.35811800000000005
aF0.35513140000000004
aF0.35359700000000005
aF0.35074740000000004
aF0.348665
aF0.3461168
aF0.34425360000000005
aF0.34222600000000003
aF0.33970520000000004
aF0.3375406
aF0.3351294
aF0.3329648
aF0.3310194
aF0.32855340000000005
aF0.3264984
aF0.32430640000000005
aF0.32115540000000004
aF0.3191278
aF0.31690840000000003
aF0.31551100000000004
aF0.31340120000000005
aF0.31082560000000004
aF0.3087706
aF0.3073732
aF0.3043592
aF0.3028248
aF0.3011534
aF0.2988518
aF0.2964954
aF0.2944678
aF0.2925498
aF0.2907688
aF0.28849460000000005
aF0.286604
aF0.2844394
aF0.282905
aF0.2813706
aF0.2790416
aF0.27745240000000004
aF0.275096
aF0.2729588
aF0.27161620000000003
aF0.2694242
aF0.26715
aF0.2657526
aF0.2641086
aF0.2621906
aF0.25958760000000003
aF0.2585464
aF0.2569846
aF0.25509400000000004
aF0.253039
aF0.25166900000000003
aF0.24986060000000002
aF0.24802480000000002
aF0.24599720000000003
aF0.244956
aF0.24306540000000001
aF0.2409282
aF0.24005140000000003
aF0.2379416
aF0.236188
aF0.2352016
aF0.2332014
aF0.2321602
aF0.23018740000000001
aF0.2285434
aF0.227557
aF0.2255842
aF0.22383060000000002
aF0.2225428
aF0.22150160000000002
aF0.21966580000000002
aF0.21873420000000002
aF0.21703540000000002
aF0.21569280000000002
aF0.2142406
aF0.2129802
aF0.21111700000000003
aF0.21018540000000002
aF0.2087332
aF0.2068974
aF0.2057466
aF0.2047054
aF0.2031436
aF0.2018832
aF0.20078720000000003
aF0.1988966
aF0.19801980000000002
aF0.1967868
aF0.1954442
aF0.19434820000000003
aF0.19284120000000002
aF0.1916904
aF0.1901286
aF0.1892792
aF0.18788180000000002
aF0.186868
aF0.18541580000000002
aF0.18448420000000001
aF0.1827032
aF0.1817168
aF0.18067560000000002
aF0.17911380000000002
aF0.17840140000000002
aF0.17714100000000002
aF0.1759628
aF0.17467500000000002
aF0.1734968
aF0.17245560000000001
aF0.1713048
aF0.17042800000000002
aF0.1688114
aF0.16807160000000002
aF0.1666194
aF0.165496
aF0.1647288
aF0.16341360000000002
aF0.16242720000000002
aF0.1611942
aF0.1600434
aF0.1592762
aF0.1579336
aF0.156728
aF0.15604300000000002
aF0.15483740000000001
aF0.1536866
aF0.15280980000000002
aF0.1516864
aF0.150837
aF0.149741
aF0.14856280000000002
aF0.14771340000000002
aF0.14650780000000002
aF0.1453844
aF0.14458980000000002
aF0.1434116
aF0.1427266
aF0.1415758
aF0.1407538
aF0.13974
aF0.13878100000000002
aF0.13801380000000002
aF0.1369726
aF0.1359862
aF0.135219
aF0.13426000000000002
aF0.1333832
aF0.13220500000000002
aF0.1316296
aF0.1306158
aF0.1297116
aF0.1288622
aF0.12795800000000002
aF0.12710860000000002
aF0.12639620000000001
aF0.1253002
aF0.1244234
aF0.1236836
aF0.12277940000000001
aF0.12171080000000001
aF0.121245
aF0.120149
aF0.11935440000000001
aF0.1185872
aF0.1176008
aF0.11672400000000001
aF0.11609380000000001
aF0.1151896
aF0.11428540000000001
aF0.1142032
aF0.1142032
aF0.1142032
aF0.1142032
aF0.1142032
aF0.1142032
aF0.1142032
aF0.1142032
aF0.1142032
aF0.1142032
aF0.1142032
aF0.1142032
aF0.1142032
aF0.1142032
aF0.1142032
aF0.1142032
aF0.1142032
aF0.1142032
aF0.1142032
aF0.1142032
aF0.1142032
aF0.1142032
aF0.1142032
aF0.1142032
aF0.1142032
aF0.1142032
aF0.1142032
aF0.1142032
aF0.1142032
aF0.1142032
aF0.1142032
aF0.1142032
aF0.1142032
aF0.1142032
aF0.1142032
aF0.1142032
aF0.1142032
aF0.1142032
aF0.1142032
aF0.1142032
aF0.1142032
aF0.1142032
aF0.1142032
aF0.1142032
aF0.1142032
aF0.1142032
aF0.1142032
aF0.1142032
aF0.1142032
aF0.1142032
aF0.1142032
aF0.1142032
aF0.1142032
aF0.1142032
aF0.1142032
aF0.1142032
aF0.1142032
aF0.1142032
aF0.1142032
aF0.1142032
aF0.1142032
aF0.1142032
aF0.1142032
aF0.1142032
aF0.1142032
aF0.1142032
aF0.1142032
aF0.1142032
aF0.1142032
aF0.1142032
aF0.1142032
aF0.1142032
aF0.1142032
aF0.1142032
aF0.1142032
aF0.1142032
aF0.1142032
aF0.1142032
aF0.1142032
aF0.1142032
aF0.1142032
aF0.1142032
aF0.1142032
aF0.1142032
aF0.1142032
aF0.1142032
aF0.1142032
aF0.1142032
aF0.1142032
aF0.1142032
aF0.1142032
aF0.1142032
aF0.1142032
aF0.1142032
aF0.1142032
aF0.1142032
aF0.1142032
aF0.1142032
aF0.1142032
aF0.1142032
aF0.1142032
aF0.1142032
aF0.1142032
aF0.1142032
aF0.1142032
aF0.1142032
aF0.1142032
aF0.1142032
aF0.1142032
aF0.1142032
aF0.1142032
aF0.1142032
aF0.1142032
aF0.1142032
aF0.1142032
aF0.1142032
aF0.1142032
aF0.1142032
aF0.1142032
aF0.1142032
aF0.1142032
aF0.1142032
aF0.1142032
aF0.1142032
aF0.1142032
aF0.1142032
aF0.1142032
aF0.1142032
aF0.1142032
aF0.1142032
aF0.1142032
aF0.1142032
aF0.1142032
aF0.1142032
aF0.1142032
aF0.1142032
aF0.1142032
aF0.1142032
aF0.1142032
aF0.1142032
aF0.1142032
aF0.1142032
aF0.1142032
aF0.1142032
aF0.1142032
aF0.1142032
aF0.1142032
aF0.1142032
aF0.1142032
aF0.1142032
aF0.1142032
aF0.1142032
aF0.1142032
aF0.1142032
aF0.1142032
aF0.1142032
aF0.1142032
aF0.1142032
aF0.1142032
aF0.1142032
aF0.1142032
aF0.1142032
aF0.1142032
aF0.1142032
aF0.1142032
aF0.1142032
aF0.1142032
aF0.1142032
aF0.1142032
aF0.1142032
aF0.1142032
aF0.1142032
aF0.1142032
aF0.1142032
aF0.1142032
aF0.1142032
aF0.1142032
aF0.1142032
aF0.1142032
aF0.1142032
aF0.1142032
aF0.1142032
aF0.1142032
aF0.1142032
aF0.1142032
aF0.1142032
as.