(dp0
S'control'
p1
(lp2
I0
aI0
aI0
aI0
aI0
aI0
aI0
aI0
aI0
aI0
aI0
aI0
aI0
aI0
aI0
aI0
aI0
aI0
aI0
aI0
aI0
aI0
aI0
aI0
aI0
aI0
aI0
aI0
aI0
aI0
aI0
aI0
aI0
aI0
aI0
aI0
aI0
aI0
aI0
aI0
aI0
aI0
aI0
aI0
aI0
aI0
aI0
aI0
aI0
aI0
aI0
aI0
aI0
aI0
aI0
aI0
aI0
aI0
aI0
aI0
aI0
aI0
aI0
aI0
aI0
aI0
aI0
aI0
aI0
aI0
aI0
aI0
aI0
aI0
aI0
aI0
aI0
aI0
aI0
aI0
aI0
aI0
aI0
aI0
aI0
aI0
aI0
aI0
aI0
aI0
aI0
aI0
aI0
aI0
aI0
aI0
aI0
aI0
aI0
aI0
aI0
aI0
aI0
aI0
aI0
aI0
aI0
aI0
aI0
aI0
aI0
aI0
aI0
aI0
aI0
aI0
aI0
aI0
aI0
aI0
aI0
aI0
aI0
aI0
aI0
aI0
aI0
aI0
aI0
aI0
aI0
aI0
aI0
aI0
aI0
aI0
aI0
aI0
aI0
aI0
aI0
aI0
aI0
aI0
aI0
aI0
aI0
aI0
aI0
aI0
aI0
aI0
aI0
aI0
aI0
aI0
aI0
aI0
aI0
aI0
aI0
aI0
aI0
aI0
aI0
aI0
aI0
aI0
aI0
aI0
aI0
aI0
aI0
aI0
aI0
aI0
aI0
aI0
aI0
aI0
aI0
aI0
aI0
aI0
aI0
aI0
aI0
aI0
aI0
aI0
aI0
aI0
aI0
aI0
aI0
aI0
aI0
aI0
aI0
aI0
aI0
aI0
aI0
aI0
aI0
aI0
aI0
aI0
aI0
aI0
aI0
aI0
aI0
aI0
aI0
aI0
aI0
aI0
aI0
aI0
aI0
aI0
aI0
aI0
aI0
aI0
aI0
aI0
aI0
aI0
aI0
aI0
aI0
aI0
aI0
aI0
aI0
aI0
aI0
aI0
aI0
aI0
aI0
aI0
aI0
aI0
aI0
aI0
aI0
aI0
aI0
aI0
aI0
aI0
aI0
aI0
aI0
aI0
aI0
aI0
aI0
aI0
aI0
aI0
aI0
aI0
aI0
aI0
aI0
aI0
aI0
aI0
aI0
aI0
aI0
aI0
aI0
aI0
aI0
aI0
aI0
aI0
aI0
aI0
aI0
aI0
aI0
aI0
aI0
aI0
aI0
aI0
aI0
aI0
aI0
aI0
aI0
aI0
aI0
aI0
aI0
aI0
aI0
aI0
aI0
aI0
aI0
aI0
aI0
aI0
aI0
aI0
aI0
aI0
aI0
aI0
aI0
aI0
aI0
aI0
aI0
aI0
aI0
aI0
aI0
aI0
aI0
aI0
aI0
aI0
aI0
aI0
aI0
aI0
aI0
aI0
aI0
aI0
aI0
aI0
aI0
aI0
aI0
aI0
aI0
aI0
aI0
aI0
aI0
aI0
aI0
aI0
aI0
aI0
aI0
aI0
aI0
aI0
aI0
aI0
aI0
aI0
aI0
aI0
aI0
aI0
aI0
aI0
aI0
aI0
aI0
aI0
aI0
aI0
aI0
aI0
aI0
aI0
aI0
aI0
aI0
aI0
aI0
aI0
aI0
aI0
aI0
aI0
aI0
aI0
aI0
aI0
aI0
aI0
aI0
aI0
aI0
aI0
aI0
aI0
aI0
aI0
aI0
aI0
aI0
aI0
aI0
aI0
aI0
aI0
aI0
aI0
aI0
aI0
aI0
aI0
aI0
aI0
aI0
aI0
aI0
aI0
aI0
aI0
aI0
aI0
aI0
aI0
aI0
aI0
aI0
aI0
aI0
aI0
aI0
aI0
aI0
aI0
aI0
aI0
aI0
aI0
aI0
aI0
aI0
aI0
aI0
aI0
aI0
aI0
aI0
aI0
aI0
aI0
aI0
aI0
aI0
aI0
aI0
aI0
aI0
aI0
aI0
aI0
aI0
aI0
aI0
aI0
aI0
aI0
aI0
aI0
aI0
aI0
aI0
aI0
aI0
aI0
aI0
aI0
aI0
aI0
aI0
aI0
aI0
aI0
aI0
aI0
aI0
aI0
aI0
aI0
aI0
aI0
aI0
aI0
aI0
aI0
aI0
aI0
aI0
aI0
aI0
aI0
aI0
aI0
aI0
aI0
aI0
aI0
aI0
aI0
aI0
aI0
aI0
aI0
aI0
aI0
aI0
aI0
aI0
aI0
aI0
aI0
aI0
aI0
aI0
aI0
aI0
aI0
aI0
aI0
aI0
aI0
aI0
aI0
aI0
aI0
aI0
aI0
aI0
aI0
aI0
aI0
aI0
aI0
aI0
aI0
aI0
aI0
aI0
aI0
aI0
aI0
aI0
aI0
aI0
aI0
aI0
aI0
aI0
aI0
aI0
aI0
aI0
aI0
aI0
aI0
aI0
aI0
aI0
aI0
aI0
aI0
aI0
aI0
aI0
aI0
aI0
aI0
aI0
aI0
aI0
aI0
aI0
aI0
aI0
aI0
aI0
aI0
aI0
aI0
aI0
aI0
aI0
aI0
aI0
aI0
aI0
aI0
aI0
aI0
aI0
aI0
aI0
aI0
aI0
aI0
aI0
aI0
aI0
aI0
aI0
aI0
aI0
aI0
aI0
aI0
aI0
aI0
aI0
aI0
aI0
aI0
aI0
aI0
aI0
aI0
aI0
aI0
aI0
aI0
aI0
aI0
aI0
aI0
aI0
aI0
aI0
aI0
aI0
aI0
aI0
aI0
aI0
aI0
aI0
aI0
aI0
aI0
aI0
aI0
aI0
aI0
aI0
aI0
aI0
aI0
aI0
aI0
aI0
aI0
aI0
aI0
aI0
aI0
aI0
aI0
aI0
aI0
aI0
aI0
aI0
aI0
aI0
aI0
aI0
aI0
aI0
aI0
aI0
aI0
aI0
aI0
aI0
aI0
aI0
aI0
aI0
aI0
aI0
aI0
aI0
aI0
aI0
aI0
aI0
aI0
aI0
aI0
aI0
aI0
aI0
aI0
aI0
aI0
aI0
aI0
aI0
aI0
aI0
aI0
aI0
aI0
aI0
aI0
aI0
aI0
aI0
aI0
aI0
aI0
aI0
aI0
aI0
aI0
aI0
aI0
aI0
aI0
aI0
aI0
asS'position_steps'
p3
(lp4
I49171
aI49161
aI49122
aI49042
aI48965
aI48895
aI48818
aI48741
aI48646
aI48608
aI48513
aI48441
aI48389
aI48325
aI48252
aI48180
aI48106
aI48031
aI47958
aI47886
aI47813
aI47739
aI47659
aI47590
aI47515
aI47447
aI47373
aI47299
aI47225
aI47152
aI47079
aI47005
aI46932
aI46860
aI46784
aI46711
aI46636
aI46563
aI46489
aI46415
aI46339
aI46264
aI46195
aI46125
aI46050
aI45975
aI45900
aI45828
aI45753
aI45678
aI45609
aI45534
aI45462
aI45388
aI45315
aI45241
aI45171
aI45096
aI45022
aI44946
aI44873
aI44799
aI44727
aI44652
aI44582
aI44506
aI44431
aI44360
aI44284
aI44212
aI44139
aI44065
aI43991
aI43922
aI43846
aI43773
aI43699
aI43626
aI43555
aI43479
aI43405
aI43333
aI43258
aI43184
aI43113
aI43040
aI42963
aI42893
aI42817
aI42747
aI42672
aI42597
aI42524
aI42451
aI42379
aI42304
aI42230
aI42158
aI42083
aI42011
aI41937
aI41863
aI41791
aI41715
aI41643
aI41569
aI41496
aI41422
aI41349
aI41277
aI41203
aI41129
aI41058
aI40980
aI40909
aI40835
aI40761
aI40689
aI40616
aI40536
aI40467
aI40396
aI40317
aI40242
aI40171
aI40096
aI40030
aI39954
aI39879
aI39808
aI39734
aI39660
aI39587
aI39514
aI39439
aI39366
aI39295
aI39219
aI39144
aI39074
aI38999
aI38925
aI38853
aI38777
aI38706
aI38633
aI38559
aI38485
aI38412
aI38337
aI38262
aI38190
aI38118
aI38044
aI37973
aI37897
aI37825
aI37751
aI37677
aI37605
aI37532
aI37457
aI37384
aI37310
aI37236
aI37164
aI37090
aI37016
aI36943
aI36870
aI36796
aI36723
aI36649
aI36576
aI36503
aI36429
aI36356
aI36282
aI36208
aI36137
aI36062
aI35989
aI35915
aI35841
aI35765
aI35693
aI35620
aI35550
aI35472
aI35401
aI35328
aI35254
aI35179
aI35102
aI35028
aI34959
aI34888
aI34807
aI34738
aI34668
aI34593
aI34518
aI34446
aI34371
aI34300
aI34226
aI34152
aI34079
aI34005
aI33931
aI33859
aI33785
aI33676
aI33622
aI33539
aI33475
aI33391
aI33310
aI33260
aI33186
aI33092
aI33046
aI32952
aI32871
aI32813
aI32733
aI32651
aI32575
aI32515
aI32430
aI32375
aI32291
aI32210
aI32167
aI32057
aI32021
aI31932
aI31877
aI31799
aI31729
aI31655
aI31578
aI31508
aI31435
aI31360
aI31287
aI31215
aI31141
aI31068
aI30994
aI30922
aI30847
aI30772
aI30701
aI30627
aI30554
aI30481
aI30403
aI30335
aI30260
aI30186
aI30113
aI30042
aI29965
aI29889
aI29818
aI29744
aI29669
aI29564
aI29505
aI29430
aI29340
aI29290
aI29226
aI29122
aI29082
aI28986
aI28907
aI28858
aI28764
aI28685
aI28632
aI28547
aI28489
aI28403
aI28317
aI28243
aI28191
aI28106
aI28023
aI27967
aI27886
aI27805
aI27761
aI27665
aI27610
aI27507
aI27448
aI27362
aI27300
aI27230
aI27149
aI27060
aI27023
aI26926
aI26858
aI26801
aI26726
aI26632
aI26581
aI26484
aI26420
aI26329
aI26268
aI26212
aI26122
aI26042
aI25996
aI25897
aI25835
aI25766
aI25687
aI25604
aI25552
aI25463
aI25383
aI25342
aI25247
aI25175
aI25081
aI25028
aI24937
aI24891
aI24806
aI24733
aI24646
aI24590
aI24503
aI24448
aI24362
aI24278
aI24236
aI24141
aI24060
aI24013
aI23922
aI23866
aI23770
aI23675
aI23612
aI23561
aI23482
aI23410
aI23344
aI23256
aI23181
aI23127
aI23046
aI22976
aI22884
aI22820
aI22743
aI22689
aI22582
aI22540
aI22426
aI22381
aI22290
aI22245
aI22152
aI22090
aI22000
aI21923
aI21851
aI21788
aI21703
aI21629
aI21582
aI21478
aI21416
aI21328
aI21291
aI21198
aI21139
aI21043
aI20974
aI20915
aI20831
aI20742
aI20705
aI20609
aI20549
aI20482
aI20389
aI20331
aI20263
aI20180
aI20097
aI20046
aI19956
aI19881
aI19823
aI19736
aI19672
aI19595
aI19516
aI19456
aI19366
aI19292
aI19213
aI19164
aI19059
aI18990
aI18946
aI18860
aI18782
aI18717
aI18634
aI18552
aI18496
aI18409
aI18329
aI18285
aI18191
aI18112
aI18059
aI17959
aI17886
aI17844
aI17741
aI17685
aI17613
aI17522
aI17450
aI17401
aI17296
aI17229
aI17162
aI17091
aI17021
aI16949
aI16877
aI16789
aI16740
aI16674
aI16590
aI16511
aI16427
aI16357
aI16269
aI16201
aI16128
aI16071
aI16007
aI15914
aI15851
aI15764
aI15689
aI15638
aI15556
aI15471
aI15416
aI15328
aI15247
aI15195
aI15100
aI15034
aI14973
aI14876
aI14806
aI14747
aI14658
aI14581
aI14507
aI14462
aI14365
aI14317
aI14197
aI14144
aI14093
aI13991
aI13926
aI13861
aI13779
aI13697
aI13655
aI13552
aI13483
aI13439
aI13332
aI13258
aI13211
aI13119
aI13043
aI12973
aI12913
aI12820
aI12775
aI12675
aI12605
aI12546
aI12440
aI12402
aI12327
aI12250
aI12165
aI12100
aI12018
aI11953
aI11880
aI11789
aI11723
aI11675
aI11580
aI11497
aI11437
aI11387
aI11314
aI11239
aI11164
aI11091
aI11019
aI10943
aI10871
aI10798
aI10723
aI10651
aI10577
aI10501
aI10430
aI10357
aI10284
aI10211
aI10137
aI10064
aI9993
aI9916
aI9843
aI9770
aI9696
aI9623
aI9549
aI9476
aI9403
aI9328
aI9257
aI9181
aI9109
aI9035
aI8961
aI8888
aI8815
aI8742
aI8671
aI8593
aI8521
aI8447
aI8374
aI8301
aI8228
aI8153
aI8081
aI8008
aI7933
aI7861
aI7787
aI7713
aI7640
aI7567
aI7484
aI7414
aI7348
aI7273
aI7199
aI7126
aI7053
aI6979
aI6905
aI6833
aI6752
aI6681
aI6613
aI6539
aI6465
aI6387
aI6319
aI6245
aI6173
aI6098
aI6019
aI5951
aI5877
aI5806
aI5730
aI5658
aI5577
aI5507
aI5432
aI5360
aI5287
aI5217
aI5144
aI5064
aI4990
aI4924
aI4850
aI4774
aI4703
aI4628
aI4555
aI4484
aI4409
aI4330
aI4261
aI4188
aI4170
aI4170
aI4170
aI4170
aI4170
aI4170
aI4170
aI4170
aI4170
aI4170
aI4170
aI4170
aI4170
aI4170
aI4170
aI4170
aI4170
aI4170
aI4170
aI4170
aI4170
aI4170
aI4170
aI4170
aI4170
aI4170
aI4170
aI4170
aI4170
aI4170
aI4170
aI4170
aI4170
aI4170
aI4170
aI4170
aI4170
aI4170
aI4170
aI4170
aI4170
aI4170
aI4170
aI4170
aI4170
aI4170
aI4170
aI4170
aI4170
aI4170
aI4170
aI4170
aI4170
aI4170
aI4170
aI4170
aI4170
aI4170
aI4170
aI4170
aI4170
aI4170
aI4170
aI4170
aI4170
aI4170
aI4170
aI4170
aI4170
aI4170
aI4170
aI4170
aI4170
aI4170
aI4170
aI4170
aI4170
aI4170
aI4170
aI4170
aI4170
aI4170
aI4170
aI4170
aI4170
aI4170
aI4170
aI4170
aI4170
aI4170
aI4170
aI4170
aI4170
aI4170
aI4170
aI4170
aI4170
aI4170
aI4170
aI4170
aI4170
aI4170
aI4170
aI4170
aI4170
aI4170
aI4170
aI4170
aI4170
aI4170
aI4170
aI4170
aI4170
aI4170
aI4170
aI4170
aI4170
asS'velocity_steps'
p5
(lp6
I0
aI-3649
aI-3649
aI-3649
aI-3649
aI-3649
aI-3649
aI-3649
aI-3649
aI-3649
aI-3649
aI-3649
aI-3649
aI-3649
aI-3649
aI-3649
aI-3649
aI-3649
aI-3649
aI-3649
aI-3649
aI-3649
aI-3649
aI-3649
aI-3649
aI-3649
aI-3649
aI-3649
aI-3649
aI-3649
aI-3649
aI-3649
aI-3649
aI-3649
aI-3649
aI-3649
aI-3649
aI-3649
aI-3649
aI-3649
aI-3649
aI-3649
aI-3649
aI-3649
aI-3649
aI-3649
aI-3649
aI-3649
aI-3649
aI-3649
aI-3649
aI-3649
aI-3649
aI-3649
aI-3649
aI-3649
aI-3649
aI-3649
aI-3649
aI-3649
aI-3649
aI-3649
aI-3649
aI-3649
aI-3649
aI-3649
aI-3649
aI-3649
aI-3649
aI-3649
aI-3649
aI-3649
aI-3649
aI-3649
aI-3649
aI-3649
aI-3649
aI-3649
aI-3649
aI-3649
aI-3649
aI-3649
aI-3649
aI-3649
aI-3649
aI-3649
aI-3649
aI-3649
aI-3649
aI-3649
aI-3649
aI-3649
aI-3649
aI-3649
aI-3649
aI-3649
aI-3649
aI-3649
aI-3649
aI-3649
aI-3649
aI-3649
aI-3649
aI-3649
aI-3649
aI-3649
aI-3649
aI-3649
aI-3649
aI-3649
aI-3649
aI-3649
aI-3649
aI-3649
aI-3649
aI-3649
aI-3649
aI-3649
aI-3649
aI-3649
aI-3649
aI-3649
aI-3649
aI-3649
aI-3649
aI-3649
aI-3649
aI-3649
aI-3649
aI-3649
aI-3649
aI-3649
aI-3649
aI-3649
aI-3649
aI-3649
aI-3649
aI-3649
aI-3649
aI-3649
aI-3649
aI-3649
aI-3649
aI-3649
aI-3649
aI-3649
aI-3649
aI-3649
aI-3649
aI-3649
aI-3649
aI-3649
aI-3649
aI-3649
aI-3649
aI-3649
aI-3649
aI-3649
aI-3649
aI-3649
aI-3649
aI-3649
aI-3649
aI-3649
aI-3649
aI-3649
aI-3649
aI-3649
aI-3649
aI-3649
aI-3649
aI-3649
aI-3649
aI-3649
aI-3649
aI-3649
aI-3649
aI-3649
aI-3649
aI-3649
aI-3649
aI-3649
aI-3649
aI-3649
aI-3649
aI-3649
aI-3649
aI-3649
aI-3649
aI-3649
aI-3649
aI-3649
aI-3649
aI-3649
aI-3649
aI-3649
aI-3649
aI-3649
aI-3649
aI-3649
aI-3649
aI-3649
aI-3649
aI-3649
aI-3649
aI-3649
aI-3649
aI-3649
aI-3649
aI-3649
aI-3649
aI-3649
aI-3649
aI-3649
aI-3649
aI-3649
aI-3649
aI-3649
aI-3649
aI-3649
aI-3649
aI-3649
aI-3649
aI-3649
aI-3649
aI-3649
aI-3649
aI-3649
aI-3649
aI-3649
aI-3649
aI-3649
aI-3649
aI-3649
aI-3649
aI-3649
aI-3649
aI-3649
aI-3649
aI-3649
aI-3649
aI-3649
aI-3649
aI-3649
aI-3649
aI-3649
aI-3649
aI-3649
aI-3649
aI-3649
aI-3649
aI-3649
aI-3649
aI-3649
aI-3649
aI-3649
aI-3649
aI-3649
aI-3649
aI-3649
aI-3649
aI-3649
aI-3649
aI-3649
aI-3649
aI-3649
aI-3649
aI-3649
aI-3649
aI-3649
aI-3649
aI-3649
aI-3649
aI-3649
aI-3649
aI-3649
aI-3649
aI-3649
aI-3649
aI-3649
aI-3649
aI-3649
aI-3649
aI-3649
aI-3649
aI-3649
aI-3649
aI-3649
aI-3649
aI-3649
aI-3649
aI-3649
aI-3649
aI-3649
aI-3649
aI-3649
aI-3649
aI-3649
aI-3649
aI-3649
aI-3649
aI-3649
aI-3649
aI-3649
aI-3649
aI-3649
aI-3649
aI-3649
aI-3649
aI-3649
aI-3649
aI-3649
aI-3649
aI-3649
aI-3649
aI-3649
aI-3649
aI-3649
aI-3649
aI-3649
aI-3649
aI-3649
aI-3649
aI-3649
aI-3649
aI-3649
aI-3649
aI-3649
aI-3649
aI-3649
aI-3649
aI-3649
aI-3649
aI-3649
aI-3649
aI-3649
aI-3649
aI-3649
aI-3649
aI-3649
aI-3649
aI-3649
aI-3649
aI-3649
aI-3649
aI-3649
aI-3649
aI-3649
aI-3649
aI-3649
aI-3649
aI-3649
aI-3649
aI-3649
aI-3649
aI-3649
aI-3649
aI-3649
aI-3649
aI-3649
aI-3649
aI-3649
aI-3649
aI-3649
aI-3649
aI-3649
aI-3649
aI-3649
aI-3649
aI-3649
aI-3649
aI-3649
aI-3649
aI-3649
aI-3649
aI-3649
aI-3649
aI-3649
aI-3649
aI-3649
aI-3649
aI-3649
aI-3649
aI-3649
aI-3649
aI-3649
aI-3649
aI-3649
aI-3649
aI-3649
aI-3649
aI-3649
aI-3649
aI-3649
aI-3649
aI-3649
aI-3649
aI-3649
aI-3649
aI-3649
aI-3649
aI-3649
aI-3649
aI-3649
aI-3649
aI-3649
aI-3649
aI-3649
aI-3649
aI-3649
aI-3649
aI-3649
aI-3649
aI-3649
aI-3649
aI-3649
aI-3649
aI-3649
aI-3649
aI-3649
aI-3649
aI-3649
aI-3649
aI-3649
aI-3649
aI-3649
aI-3649
aI-3649
aI-3649
aI-3649
aI-3649
aI-3649
aI-3649
aI-3649
aI-3649
aI-3649
aI-3649
aI-3649
aI-3649
aI-3649
aI-3649
aI-3649
aI-3649
aI-3649
aI-3649
aI-3649
aI-3649
aI-3649
aI-3649
aI-3649
aI-3649
aI-3649
aI-3649
aI-3649
aI-3649
aI-3649
aI-3649
aI-3649
aI-3649
aI-3649
aI-3649
aI-3649
aI-3649
aI-3649
aI-3649
aI-3649
aI-3649
aI-3649
aI-3649
aI-3649
aI-3649
aI-3649
aI-3649
aI-3649
aI-3649
aI-3649
aI-3649
aI-3649
aI-3649
aI-3649
aI-3649
aI-3649
aI-3649
aI-3649
aI-3649
aI-3649
aI-3649
aI-3649
aI-3649
aI-3649
aI-3649
aI-3649
aI-3649
aI-3649
aI-3649
aI-3649
aI-3649
aI-3649
aI-3649
aI-3649
aI-3649
aI-3649
aI-3649
aI-3649
aI-3649
aI-3649
aI-3649
aI-3649
aI-3649
aI-3649
aI-3649
aI-3649
aI-3649
aI-3649
aI-3649
aI-3649
aI-3649
aI-3649
aI-3649
aI-3649
aI-3649
aI-3649
aI-3649
aI-3649
aI-3649
aI-3649
aI-3649
aI-3649
aI-3649
aI-3649
aI-3649
aI-3649
aI-3649
aI-3649
aI-3649
aI-3649
aI-3649
aI-3649
aI-3649
aI-3649
aI-3649
aI-3649
aI-3649
aI-3649
aI-3649
aI-3649
aI-3649
aI-3649
aI-3649
aI-3649
aI-3649
aI-3649
aI-3649
aI-3649
aI-3649
aI-3649
aI-3649
aI-3649
aI-3649
aI-3649
aI-3649
aI-3649
aI-3649
aI-3649
aI-3649
aI-3649
aI-3649
aI-3649
aI-3649
aI-3649
aI-3649
aI-3649
aI-3649
aI-3649
aI-3649
aI-3649
aI-3649
aI-3649
aI-3649
aI-3649
aI-3649
aI-3649
aI-3649
aI-3649
aI-3649
aI-3649
aI-3649
aI-3649
aI-3649
aI-3649
aI-3649
aI-3649
aI-3649
aI-3649
aI-3649
aI-3649
aI-3649
aI-3649
aI-3649
aI-3649
aI-3649
aI-3649
aI-3649
aI-3649
aI-3649
aI-3649
aI-3649
aI-3649
aI-3649
aI-3649
aI-3649
aI-3649
aI-3649
aI-3649
aI-3649
aI-3649
aI-3649
aI-3649
aI-3649
aI-3649
aI-3649
aI-3649
aI-3649
aI-3649
aI-3649
aI-3649
aI-3649
aI-3649
aI-3649
aI-3649
aI-3649
aI-3649
aI-3649
aI-3649
aI-3649
aI-3649
aI-3649
aI-3649
aI-3649
aI-3649
aI-3649
aI-3649
aI-3649
aI-3649
aI-3649
aI-3649
aI-3649
aI-3649
aI-3649
aI-3649
aI-3649
aI-3649
aI-3649
aI-3649
aI-3649
aI-3649
aI-3649
aI-3649
aI-3649
aI-3649
aI-3649
aI-3649
aI-3649
aI-3649
aI-3649
aI-3649
aI-3649
aI-3649
aI-3649
aI-3649
aI-3649
aI-3649
aI-3649
aI-3649
aI-3649
aI-3649
aI-3649
aI-3649
aI-3649
aI-3649
aI-3649
aI-3649
aI-3649
aI-3649
aI-3649
aI-3649
aI-3649
aI-3649
aI-3649
aI-3649
aI-3649
aI-3649
aI-3649
aI-3649
aI-3649
aI-3649
aI-3649
aI-3649
aI-3649
aI-3649
aI-3649
aI-3649
aI-3649
aI-3649
aI-3649
aI-3649
aI-3649
aI-3649
aI-3649
aI-3649
aI-3649
aI-3649
aI-3649
aI-3649
aI-3649
aI-3649
aI-3649
aI-3649
aI-3649
aI-3649
aI-3649
aI-3649
aI-3649
aI-3649
aI-3649
aI-3649
aI-3649
aI-3649
aI-3649
aI-3649
aI-3649
aI-3649
asS'time'
p7
(lp8
F1366497051.30005
aF1366497053.349621
aF1366497053.364547
aF1366497053.386305
aF1366497053.407363
aF1366497053.426326
aF1366497053.44744
aF1366497053.468258
aF1366497053.494231
aF1366497053.504385
aF1366497053.530687
aF1366497053.550045
aF1366497053.564246
aF1366497053.581808
aF1366497053.601587
aF1366497053.62132
aF1366497053.641374
aF1366497053.661676
aF1366497053.681649
aF1366497053.70139
aF1366497053.721081
aF1366497053.741377
aF1366497053.763087
aF1366497053.781795
aF1366497053.802397
aF1366497053.82097
aF1366497053.840809
aF1366497053.861185
aF1366497053.881344
aF1366497053.901236
aF1366497053.921184
aF1366497053.941141
aF1366497053.961058
aF1366497053.980824
aF1366497054.001503
aF1366497054.021254
aF1366497054.041839
aF1366497054.061632
aF1366497054.081741
aF1366497054.101893
aF1366497054.122644
aF1366497054.142922
aF1366497054.161963
aF1366497054.180946
aF1366497054.201188
aF1366497054.221719
aF1366497054.242087
aF1366497054.26175
aF1366497054.282236
aF1366497054.302524
aF1366497054.321386
aF1366497054.341773
aF1366497054.361384
aF1366497054.381631
aF1366497054.401443
aF1366497054.421486
aF1366497054.440678
aF1366497054.460955
aF1366497054.481339
aF1366497054.501855
aF1366497054.521986
aF1366497054.541891
aF1366497054.561566
aF1366497054.582106
aF1366497054.601191
aF1366497054.621857
aF1366497054.642299
aF1366497054.661692
aF1366497054.682297
aF1366497054.701903
aF1366497054.721723
aF1366497054.741916
aF1366497054.762136
aF1366497054.780904
aF1366497054.801434
aF1366497054.821329
aF1366497054.8416
aF1366497054.86155
aF1366497054.880867
aF1366497054.901604
aF1366497054.921621
aF1366497054.941349
aF1366497054.961583
aF1366497054.981832
aF1366497055.001308
aF1366497055.021111
aF1366497055.041929
aF1366497055.061167
aF1366497055.081625
aF1366497055.100938
aF1366497055.121241
aF1366497055.141679
aF1366497055.161646
aF1366497055.181595
aF1366497055.201074
aF1366497055.221347
aF1366497055.241526
aF1366497055.261403
aF1366497055.28165
aF1366497055.301232
aF1366497055.321314
aF1366497055.341602
aF1366497055.361212
aF1366497055.381961
aF1366497055.401559
aF1366497055.42152
aF1366497055.441553
aF1366497055.461664
aF1366497055.481486
aF1366497055.501253
aF1366497055.521296
aF1366497055.541508
aF1366497055.560893
aF1366497055.581968
aF1366497055.601464
aF1366497055.621456
aF1366497055.64158
aF1366497055.66124
aF1366497055.681197
aF1366497055.702929
aF1366497055.721632
aF1366497055.741171
aF1366497055.762758
aF1366497055.783003
aF1366497055.802275
aF1366497055.822823
aF1366497055.840891
aF1366497055.861485
aF1366497055.881762
aF1366497055.901299
aF1366497055.921447
aF1366497055.941611
aF1366497055.961537
aF1366497055.981419
aF1366497056.001785
aF1366497056.021631
aF1366497056.040925
aF1366497056.061717
aF1366497056.082163
aF1366497056.10129
aF1366497056.121664
aF1366497056.141691
aF1366497056.161327
aF1366497056.182011
aF1366497056.20138
aF1366497056.221181
aF1366497056.241319
aF1366497056.261675
aF1366497056.281416
aF1366497056.301734
aF1366497056.322191
aF1366497056.341802
aF1366497056.361617
aF1366497056.381546
aF1366497056.401129
aF1366497056.421591
aF1366497056.441353
aF1366497056.461575
aF1366497056.481596
aF1366497056.501332
aF1366497056.52117
aF1366497056.541573
aF1366497056.561245
aF1366497056.581567
aF1366497056.601599
aF1366497056.621405
aF1366497056.641491
aF1366497056.661698
aF1366497056.68152
aF1366497056.701473
aF1366497056.721622
aF1366497056.741476
aF1366497056.761534
aF1366497056.781501
aF1366497056.8014
aF1366497056.821564
aF1366497056.841407
aF1366497056.861592
aF1366497056.881564
aF1366497056.901037
aF1366497056.921473
aF1366497056.941447
aF1366497056.96151
aF1366497056.981617
aF1366497057.002451
aF1366497057.021911
aF1366497057.0418
aF1366497057.06076
aF1366497057.081987
aF1366497057.101407
aF1366497057.121399
aF1366497057.141635
aF1366497057.161794
aF1366497057.182959
aF1366497057.202945
aF1366497057.221738
aF1366497057.241244
aF1366497057.263105
aF1366497057.281949
aF1366497057.301118
aF1366497057.321435
aF1366497057.341948
aF1366497057.361454
aF1366497057.381845
aF1366497057.401355
aF1366497057.421454
aF1366497057.441527
aF1366497057.461486
aF1366497057.481576
aF1366497057.501849
aF1366497057.521379
aF1366497057.541499
aF1366497057.57099
aF1366497057.585745
aF1366497057.60824
aF1366497057.625868
aF1366497057.648825
aF1366497057.671011
aF1366497057.684382
aF1366497057.70438
aF1366497057.730043
aF1366497057.742884
aF1366497057.768361
aF1366497057.790359
aF1366497057.806043
aF1366497057.827748
aF1366497057.850275
aF1366497057.870998
aF1366497057.887511
aF1366497057.910409
aF1366497057.925484
aF1366497057.948305
aF1366497057.970239
aF1366497057.982054
aF1366497058.012038
aF1366497058.021934
aF1366497058.046023
aF1366497058.061034
aF1366497058.082316
aF1366497058.10136
aF1366497058.121719
aF1366497058.14254
aF1366497058.161674
aF1366497058.181621
aF1366497058.20211
aF1366497058.221842
aF1366497058.241566
aF1366497058.261563
aF1366497058.281522
aF1366497058.301747
aF1366497058.321349
aF1366497058.341523
aF1366497058.362241
aF1366497058.381496
aF1366497058.401598
aF1366497058.421528
aF1366497058.441485
aF1366497058.46253
aF1366497058.481029
aF1366497058.50135
aF1366497058.521577
aF1366497058.541663
aF1366497058.560844
aF1366497058.581809
aF1366497058.602487
aF1366497058.621822
aF1366497058.641961
aF1366497058.662379
aF1366497058.691046
aF1366497058.706977
aF1366497058.727387
aF1366497058.751971
aF1366497058.76576
aF1366497058.78278
aF1366497058.811243
aF1366497058.822347
aF1366497058.848304
aF1366497058.87008
aF1366497058.883291
aF1366497058.908834
aF1366497058.930222
aF1366497058.944828
aF1366497058.967826
aF1366497058.983844
aF1366497059.007192
aF1366497059.030535
aF1366497059.050787
aF1366497059.064762
aF1366497059.087858
aF1366497059.110589
aF1366497059.12619
aF1366497059.147977
aF1366497059.169923
aF1366497059.182193
aF1366497059.208189
aF1366497059.223361
aF1366497059.251146
aF1366497059.267143
aF1366497059.290881
aF1366497059.307703
aF1366497059.326471
aF1366497059.348643
aF1366497059.372794
aF1366497059.38302
aF1366497059.409291
aF1366497059.427919
aF1366497059.443254
aF1366497059.463911
aF1366497059.489671
aF1366497059.503561
aF1366497059.529678
aF1366497059.546987
aF1366497059.571891
aF1366497059.588606
aF1366497059.603904
aF1366497059.628448
aF1366497059.65016
aF1366497059.662759
aF1366497059.689635
aF1366497059.706375
aF1366497059.725258
aF1366497059.746755
aF1366497059.769531
aF1366497059.783628
aF1366497059.807913
aF1366497059.82963
aF1366497059.840971
aF1366497059.866911
aF1366497059.8864
aF1366497059.911947
aF1366497059.926311
aF1366497059.951137
aF1366497059.963638
aF1366497059.986849
aF1366497060.006561
aF1366497060.030087
aF1366497060.045771
aF1366497060.069261
aF1366497060.084151
aF1366497060.107799
aF1366497060.130603
aF1366497060.14199
aF1366497060.167599
aF1366497060.190058
aF1366497060.202667
aF1366497060.22736
aF1366497060.242778
aF1366497060.269007
aF1366497060.294731
aF1366497060.311978
aF1366497060.325723
aF1366497060.347446
aF1366497060.366837
aF1366497060.384929
aF1366497060.408856
aF1366497060.429444
aF1366497060.443827
aF1366497060.466093
aF1366497060.485101
aF1366497060.510182
aF1366497060.527633
aF1366497060.54848
aF1366497060.563261
aF1366497060.592559
aF1366497060.604013
aF1366497060.634932
aF1366497060.647383
aF1366497060.672042
aF1366497060.684247
aF1366497060.709536
aF1366497060.726251
aF1366497060.750904
aF1366497060.772002
aF1366497060.791581
aF1366497060.808596
aF1366497060.831796
aF1366497060.85203
aF1366497060.864719
aF1366497060.893121
aF1366497060.910195
aF1366497060.934005
aF1366497060.94408
aF1366497060.969508
aF1366497060.98539
aF1366497061.011686
aF1366497061.030337
aF1366497061.046404
aF1366497061.069147
aF1366497061.09374
aF1366497061.103745
aF1366497061.129842
aF1366497061.146059
aF1366497061.164471
aF1366497061.189609
aF1366497061.205619
aF1366497061.224095
aF1366497061.246701
aF1366497061.269078
aF1366497061.283182
aF1366497061.307642
aF1366497061.328176
aF1366497061.343895
aF1366497061.367354
aF1366497061.385011
aF1366497061.406068
aF1366497061.427552
aF1366497061.443639
aF1366497061.468187
aF1366497061.488453
aF1366497061.510105
aF1366497061.523404
aF1366497061.551888
aF1366497061.570943
aF1366497061.582631
aF1366497061.60628
aF1366497061.627588
aF1366497061.645119
aF1366497061.667786
aF1366497061.690138
aF1366497061.705324
aF1366497061.729098
aF1366497061.750892
aF1366497061.762761
aF1366497061.788343
aF1366497061.809781
aF1366497061.82426
aF1366497061.851446
aF1366497061.871485
aF1366497061.882757
aF1366497061.910922
aF1366497061.926185
aF1366497061.945549
aF1366497061.970425
aF1366497061.990024
aF1366497062.003485
aF1366497062.031987
aF1366497062.05029
aF1366497062.068578
aF1366497062.088062
aF1366497062.107049
aF1366497062.126626
aF1366497062.146198
aF1366497062.170164
aF1366497062.183349
aF1366497062.201551
aF1366497062.224211
aF1366497062.245844
aF1366497062.268601
aF1366497062.287612
aF1366497062.31147
aF1366497062.330166
aF1366497062.350134
aF1366497062.365894
aF1366497062.383091
aF1366497062.408462
aF1366497062.425433
aF1366497062.449288
aF1366497062.469666
aF1366497062.483535
aF1366497062.505734
aF1366497062.529096
aF1366497062.544102
aF1366497062.567916
aF1366497062.589997
aF1366497062.604151
aF1366497062.63014
aF1366497062.648154
aF1366497062.664545
aF1366497062.691167
aF1366497062.710188
aF1366497062.726059
aF1366497062.750469
aF1366497062.771589
aF1366497062.791674
aF1366497062.804043
aF1366497062.830173
aF1366497062.843456
aF1366497062.875853
aF1366497062.89043
aF1366497062.904528
aF1366497062.932208
aF1366497062.949812
aF1366497062.967501
aF1366497062.989852
aF1366497063.012238
aF1366497063.023615
aF1366497063.051752
aF1366497063.070533
aF1366497063.082476
aF1366497063.111683
aF1366497063.131957
aF1366497063.144598
aF1366497063.169611
aF1366497063.190204
aF1366497063.209325
aF1366497063.225628
aF1366497063.250883
aF1366497063.263244
aF1366497063.290336
aF1366497063.309738
aF1366497063.32571
aF1366497063.354473
aF1366497063.364749
aF1366497063.385295
aF1366497063.406285
aF1366497063.429186
aF1366497063.447077
aF1366497063.469606
aF1366497063.487172
aF1366497063.507072
aF1366497063.531669
aF1366497063.549751
aF1366497063.562905
aF1366497063.588598
aF1366497063.611147
aF1366497063.62765
aF1366497063.641506
aF1366497063.661221
aF1366497063.681795
aF1366497063.702209
aF1366497063.722001
aF1366497063.741602
aF1366497063.762129
aF1366497063.781796
aF1366497063.801889
aF1366497063.822124
aF1366497063.841971
aF1366497063.861883
aF1366497063.882624
aF1366497063.901864
aF1366497063.921848
aF1366497063.941866
aF1366497063.961676
aF1366497063.981946
aF1366497064.001784
aF1366497064.021146
aF1366497064.041914
aF1366497064.061849
aF1366497064.081803
aF1366497064.101829
aF1366497064.121933
aF1366497064.141869
aF1366497064.161847
aF1366497064.18186
aF1366497064.202215
aF1366497064.221597
aF1366497064.242051
aF1366497064.261769
aF1366497064.281918
aF1366497064.302166
aF1366497064.322084
aF1366497064.341913
aF1366497064.361668
aF1366497064.381131
aF1366497064.402214
aF1366497064.421811
aF1366497064.441983
aF1366497064.461948
aF1366497064.481839
aF1366497064.50172
aF1366497064.521992
aF1366497064.541843
aF1366497064.56168
aF1366497064.581997
aF1366497064.60176
aF1366497064.621755
aF1366497064.641927
aF1366497064.66175
aF1366497064.681787
aF1366497064.704242
aF1366497064.723444
aF1366497064.741277
aF1366497064.761833
aF1366497064.781835
aF1366497064.801838
aF1366497064.821755
aF1366497064.841793
aF1366497064.861929
aF1366497064.881583
aF1366497064.903802
aF1366497064.922968
aF1366497064.941453
aF1366497064.961764
aF1366497064.981804
aF1366497065.003251
aF1366497065.021727
aF1366497065.041875
aF1366497065.061337
aF1366497065.081875
aF1366497065.103296
aF1366497065.121804
aF1366497065.141907
aF1366497065.161247
aF1366497065.181897
aF1366497065.201745
aF1366497065.223586
aF1366497065.24266
aF1366497065.263266
aF1366497065.282741
aF1366497065.302741
aF1366497065.321865
aF1366497065.341717
aF1366497065.363289
aF1366497065.383502
aF1366497065.401613
aF1366497065.421585
aF1366497065.442521
aF1366497065.461702
aF1366497065.482133
aF1366497065.501936
aF1366497065.521287
aF1366497065.541915
aF1366497065.563327
aF1366497065.582055
aF1366497065.60188
aF1366497065.621868
aF1366497065.641757
aF1366497065.661997
aF1366497065.681963
aF1366497065.701763
aF1366497065.722416
aF1366497065.742122
aF1366497065.76199
aF1366497065.78201
aF1366497065.802061
aF1366497065.82235
aF1366497065.84194
aF1366497065.862585
aF1366497065.881671
aF1366497065.901817
aF1366497065.922033
aF1366497065.941935
aF1366497065.96264
aF1366497065.981532
aF1366497066.001509
aF1366497066.022109
aF1366497066.042434
aF1366497066.061808
aF1366497066.081996
aF1366497066.101731
aF1366497066.121832
aF1366497066.141965
aF1366497066.162193
aF1366497066.181441
aF1366497066.202189
aF1366497066.221265
aF1366497066.242204
aF1366497066.262073
aF1366497066.28275
aF1366497066.303499
aF1366497066.321821
aF1366497066.342128
aF1366497066.362849
aF1366497066.381611
aF1366497066.40198
aF1366497066.422167
aF1366497066.441931
aF1366497066.462194
aF1366497066.48199
aF1366497066.502119
aF1366497066.522299
aF1366497066.541933
aF1366497066.562015
aF1366497066.581888
aF1366497066.601363
aF1366497066.622195
aF1366497066.642605
aF1366497066.661777
aF1366497066.682084
aF1366497066.701469
aF1366497066.72174
aF1366497066.741962
aF1366497066.762369
aF1366497066.782269
aF1366497066.801349
aF1366497066.821635
aF1366497066.841452
aF1366497066.862058
aF1366497066.882312
aF1366497066.90197
aF1366497066.922521
aF1366497066.943587
aF1366497066.961869
aF1366497066.984786
aF1366497067.013552
aF1366497067.030926
aF1366497067.046663
aF1366497067.070328
aF1366497067.086687
aF1366497067.112181
aF1366497067.128654
aF1366497067.150993
aF1366497067.170386
aF1366497067.184254
aF1366497067.202221
aF1366497067.224848
aF1366497067.244569
aF1366497067.270637
aF1366497067.285639
aF1366497067.313206
aF1366497067.331162
aF1366497067.345595
aF1366497067.373096
aF1366497067.39221
aF1366497067.404246
aF1366497067.423797
aF1366497067.451406
aF1366497067.467581
aF1366497067.48884
aF1366497067.50163
aF1366497067.530685
aF1366497067.551217
aF1366497067.570813
aF1366497067.585836
aF1366497067.609556
aF1366497067.630284
aF1366497067.649909
aF1366497067.669058
aF1366497067.687626
aF1366497067.713047
aF1366497067.735823
aF1366497067.751543
aF1366497067.773866
aF1366497067.78781
aF1366497067.81231
aF1366497067.833597
aF1366497067.842936
aF1366497067.870278
aF1366497067.885772
aF1366497067.908273
aF1366497067.927062
aF1366497067.943284
asS'velocity'
p9
(lp10
I0
aF-0.1
aF-0.1
aF-0.1
aF-0.1
aF-0.1
aF-0.1
aF-0.1
aF-0.1
aF-0.1
aF-0.1
aF-0.1
aF-0.1
aF-0.1
aF-0.1
aF-0.1
aF-0.1
aF-0.1
aF-0.1
aF-0.1
aF-0.1
aF-0.1
aF-0.1
aF-0.1
aF-0.1
aF-0.1
aF-0.1
aF-0.1
aF-0.1
aF-0.1
aF-0.1
aF-0.1
aF-0.1
aF-0.1
aF-0.1
aF-0.1
aF-0.1
aF-0.1
aF-0.1
aF-0.1
aF-0.1
aF-0.1
aF-0.1
aF-0.1
aF-0.1
aF-0.1
aF-0.1
aF-0.1
aF-0.1
aF-0.1
aF-0.1
aF-0.1
aF-0.1
aF-0.1
aF-0.1
aF-0.1
aF-0.1
aF-0.1
aF-0.1
aF-0.1
aF-0.1
aF-0.1
aF-0.1
aF-0.1
aF-0.1
aF-0.1
aF-0.1
aF-0.1
aF-0.1
aF-0.1
aF-0.1
aF-0.1
aF-0.1
aF-0.1
aF-0.1
aF-0.1
aF-0.1
aF-0.1
aF-0.1
aF-0.1
aF-0.1
aF-0.1
aF-0.1
aF-0.1
aF-0.1
aF-0.1
aF-0.1
aF-0.1
aF-0.1
aF-0.1
aF-0.1
aF-0.1
aF-0.1
aF-0.1
aF-0.1
aF-0.1
aF-0.1
aF-0.1
aF-0.1
aF-0.1
aF-0.1
aF-0.1
aF-0.1
aF-0.1
aF-0.1
aF-0.1
aF-0.1
aF-0.1
aF-0.1
aF-0.1
aF-0.1
aF-0.1
aF-0.1
aF-0.1
aF-0.1
aF-0.1
aF-0.1
aF-0.1
aF-0.1
aF-0.1
aF-0.1
aF-0.1
aF-0.1
aF-0.1
aF-0.1
aF-0.1
aF-0.1
aF-0.1
aF-0.1
aF-0.1
aF-0.1
aF-0.1
aF-0.1
aF-0.1
aF-0.1
aF-0.1
aF-0.1
aF-0.1
aF-0.1
aF-0.1
aF-0.1
aF-0.1
aF-0.1
aF-0.1
aF-0.1
aF-0.1
aF-0.1
aF-0.1
aF-0.1
aF-0.1
aF-0.1
aF-0.1
aF-0.1
aF-0.1
aF-0.1
aF-0.1
aF-0.1
aF-0.1
aF-0.1
aF-0.1
aF-0.1
aF-0.1
aF-0.1
aF-0.1
aF-0.1
aF-0.1
aF-0.1
aF-0.1
aF-0.1
aF-0.1
aF-0.1
aF-0.1
aF-0.1
aF-0.1
aF-0.1
aF-0.1
aF-0.1
aF-0.1
aF-0.1
aF-0.1
aF-0.1
aF-0.1
aF-0.1
aF-0.1
aF-0.1
aF-0.1
aF-0.1
aF-0.1
aF-0.1
aF-0.1
aF-0.1
aF-0.1
aF-0.1
aF-0.1
aF-0.1
aF-0.1
aF-0.1
aF-0.1
aF-0.1
aF-0.1
aF-0.1
aF-0.1
aF-0.1
aF-0.1
aF-0.1
aF-0.1
aF-0.1
aF-0.1
aF-0.1
aF-0.1
aF-0.1
aF-0.1
aF-0.1
aF-0.1
aF-0.1
aF-0.1
aF-0.1
aF-0.1
aF-0.1
aF-0.1
aF-0.1
aF-0.1
aF-0.1
aF-0.1
aF-0.1
aF-0.1
aF-0.1
aF-0.1
aF-0.1
aF-0.1
aF-0.1
aF-0.1
aF-0.1
aF-0.1
aF-0.1
aF-0.1
aF-0.1
aF-0.1
aF-0.1
aF-0.1
aF-0.1
aF-0.1
aF-0.1
aF-0.1
aF-0.1
aF-0.1
aF-0.1
aF-0.1
aF-0.1
aF-0.1
aF-0.1
aF-0.1
aF-0.1
aF-0.1
aF-0.1
aF-0.1
aF-0.1
aF-0.1
aF-0.1
aF-0.1
aF-0.1
aF-0.1
aF-0.1
aF-0.1
aF-0.1
aF-0.1
aF-0.1
aF-0.1
aF-0.1
aF-0.1
aF-0.1
aF-0.1
aF-0.1
aF-0.1
aF-0.1
aF-0.1
aF-0.1
aF-0.1
aF-0.1
aF-0.1
aF-0.1
aF-0.1
aF-0.1
aF-0.1
aF-0.1
aF-0.1
aF-0.1
aF-0.1
aF-0.1
aF-0.1
aF-0.1
aF-0.1
aF-0.1
aF-0.1
aF-0.1
aF-0.1
aF-0.1
aF-0.1
aF-0.1
aF-0.1
aF-0.1
aF-0.1
aF-0.1
aF-0.1
aF-0.1
aF-0.1
aF-0.1
aF-0.1
aF-0.1
aF-0.1
aF-0.1
aF-0.1
aF-0.1
aF-0.1
aF-0.1
aF-0.1
aF-0.1
aF-0.1
aF-0.1
aF-0.1
aF-0.1
aF-0.1
aF-0.1
aF-0.1
aF-0.1
aF-0.1
aF-0.1
aF-0.1
aF-0.1
aF-0.1
aF-0.1
aF-0.1
aF-0.1
aF-0.1
aF-0.1
aF-0.1
aF-0.1
aF-0.1
aF-0.1
aF-0.1
aF-0.1
aF-0.1
aF-0.1
aF-0.1
aF-0.1
aF-0.1
aF-0.1
aF-0.1
aF-0.1
aF-0.1
aF-0.1
aF-0.1
aF-0.1
aF-0.1
aF-0.1
aF-0.1
aF-0.1
aF-0.1
aF-0.1
aF-0.1
aF-0.1
aF-0.1
aF-0.1
aF-0.1
aF-0.1
aF-0.1
aF-0.1
aF-0.1
aF-0.1
aF-0.1
aF-0.1
aF-0.1
aF-0.1
aF-0.1
aF-0.1
aF-0.1
aF-0.1
aF-0.1
aF-0.1
aF-0.1
aF-0.1
aF-0.1
aF-0.1
aF-0.1
aF-0.1
aF-0.1
aF-0.1
aF-0.1
aF-0.1
aF-0.1
aF-0.1
aF-0.1
aF-0.1
aF-0.1
aF-0.1
aF-0.1
aF-0.1
aF-0.1
aF-0.1
aF-0.1
aF-0.1
aF-0.1
aF-0.1
aF-0.1
aF-0.1
aF-0.1
aF-0.1
aF-0.1
aF-0.1
aF-0.1
aF-0.1
aF-0.1
aF-0.1
aF-0.1
aF-0.1
aF-0.1
aF-0.1
aF-0.1
aF-0.1
aF-0.1
aF-0.1
aF-0.1
aF-0.1
aF-0.1
aF-0.1
aF-0.1
aF-0.1
aF-0.1
aF-0.1
aF-0.1
aF-0.1
aF-0.1
aF-0.1
aF-0.1
aF-0.1
aF-0.1
aF-0.1
aF-0.1
aF-0.1
aF-0.1
aF-0.1
aF-0.1
aF-0.1
aF-0.1
aF-0.1
aF-0.1
aF-0.1
aF-0.1
aF-0.1
aF-0.1
aF-0.1
aF-0.1
aF-0.1
aF-0.1
aF-0.1
aF-0.1
aF-0.1
aF-0.1
aF-0.1
aF-0.1
aF-0.1
aF-0.1
aF-0.1
aF-0.1
aF-0.1
aF-0.1
aF-0.1
aF-0.1
aF-0.1
aF-0.1
aF-0.1
aF-0.1
aF-0.1
aF-0.1
aF-0.1
aF-0.1
aF-0.1
aF-0.1
aF-0.1
aF-0.1
aF-0.1
aF-0.1
aF-0.1
aF-0.1
aF-0.1
aF-0.1
aF-0.1
aF-0.1
aF-0.1
aF-0.1
aF-0.1
aF-0.1
aF-0.1
aF-0.1
aF-0.1
aF-0.1
aF-0.1
aF-0.1
aF-0.1
aF-0.1
aF-0.1
aF-0.1
aF-0.1
aF-0.1
aF-0.1
aF-0.1
aF-0.1
aF-0.1
aF-0.1
aF-0.1
aF-0.1
aF-0.1
aF-0.1
aF-0.1
aF-0.1
aF-0.1
aF-0.1
aF-0.1
aF-0.1
aF-0.1
aF-0.1
aF-0.1
aF-0.1
aF-0.1
aF-0.1
aF-0.1
aF-0.1
aF-0.1
aF-0.1
aF-0.1
aF-0.1
aF-0.1
aF-0.1
aF-0.1
aF-0.1
aF-0.1
aF-0.1
aF-0.1
aF-0.1
aF-0.1
aF-0.1
aF-0.1
aF-0.1
aF-0.1
aF-0.1
aF-0.1
aF-0.1
aF-0.1
aF-0.1
aF-0.1
aF-0.1
aF-0.1
aF-0.1
aF-0.1
aF-0.1
aF-0.1
aF-0.1
aF-0.1
aF-0.1
aF-0.1
aF-0.1
aF-0.1
aF-0.1
aF-0.1
aF-0.1
aF-0.1
aF-0.1
aF-0.1
aF-0.1
aF-0.1
aF-0.1
aF-0.1
aF-0.1
aF-0.1
aF-0.1
aF-0.1
aF-0.1
aF-0.1
aF-0.1
aF-0.1
aF-0.1
aF-0.1
aF-0.1
aF-0.1
aF-0.1
aF-0.1
aF-0.1
aF-0.1
aF-0.1
aF-0.1
aF-0.1
aF-0.1
aF-0.1
aF-0.1
aF-0.1
aF-0.1
aF-0.1
aF-0.1
aF-0.1
aF-0.1
aF-0.1
aF-0.1
aF-0.1
aF-0.1
aF-0.1
aF-0.1
aF-0.1
aF-0.1
aF-0.1
aF-0.1
aF-0.1
aF-0.1
aF-0.1
aF-0.1
aF-0.1
aF-0.1
aF-0.1
aF-0.1
aF-0.1
aF-0.1
aF-0.1
aF-0.1
aF-0.1
aF-0.1
aF-0.1
aF-0.1
aF-0.1
aF-0.1
aF-0.1
aF-0.1
aF-0.1
aF-0.1
aF-0.1
aF-0.1
aF-0.1
aF-0.1
aF-0.1
aF-0.1
aF-0.1
aF-0.1
aF-0.1
aF-0.1
aF-0.1
aF-0.1
aF-0.1
aF-0.1
aF-0.1
aF-0.1
aF-0.1
aF-0.1
aF-0.1
aF-0.1
aF-0.1
aF-0.1
aF-0.1
aF-0.1
aF-0.1
aF-0.1
aF-0.1
aF-0.1
aF-0.1
aF-0.1
aF-0.1
aF-0.1
aF-0.1
aF-0.1
aF-0.1
aF-0.1
aF-0.1
aF-0.1
aF-0.1
aF-0.1
aF-0.1
aF-0.1
aF-0.1
aF-0.1
aF-0.1
aF-0.1
aF-0.1
aF-0.1
aF-0.1
aF-0.1
aF-0.1
aF-0.1
aF-0.1
aF-0.1
aF-0.1
aF-0.1
aF-0.1
aF-0.1
aF-0.1
aF-0.1
aF-0.1
aF-0.1
aF-0.1
aF-0.1
aF-0.1
aF-0.1
aF-0.1
aF-0.1
aF-0.1
aF-0.1
aF-0.1
aF-0.1
aF-0.1
aF-0.1
aF-0.1
aF-0.1
aF-0.1
aF-0.1
aF-0.1
aF-0.1
aF-0.1
aF-0.1
aF-0.1
aF-0.1
aF-0.1
aF-0.1
aF-0.1
aF-0.1
aF-0.1
aF-0.1
aF-0.1
aF-0.1
aF-0.1
aF-0.1
aF-0.1
aF-0.1
aF-0.1
aF-0.1
aF-0.1
aF-0.1
asS'position'
p11
(lp12
F1.3472854
aF1.3470114000000002
aF1.3459428
aF1.3437508
aF1.341641
aF1.339723
aF1.3376132
aF1.3355034000000001
aF1.3329004
aF1.3318592
aF1.3292562
aF1.3272834
aF1.3258586
aF1.324105
aF1.3221048000000002
aF1.320132
aF1.3181044000000002
aF1.3160494
aF1.3140492000000001
aF1.3120764
aF1.3100762000000001
aF1.3080486
aF1.3058566
aF1.3039660000000002
aF1.301911
aF1.3000478000000002
aF1.2980202
aF1.2959926000000002
aF1.293965
aF1.2919648000000001
aF1.2899646
aF1.287937
aF1.2859368
aF1.283964
aF1.2818816000000002
aF1.2798814
aF1.2778264000000001
aF1.2758262
aF1.2737986000000001
aF1.271771
aF1.2696886
aF1.2676336000000001
aF1.265743
aF1.2638250000000002
aF1.26177
aF1.2597150000000001
aF1.25766
aF1.2556872000000001
aF1.2536322000000002
aF1.2515772
aF1.2496866
aF1.2476316
aF1.2456588000000002
aF1.2436312
aF1.2416310000000002
aF1.2396034
aF1.2376854000000002
aF1.2356304
aF1.2336028
aF1.2315204000000002
aF1.2295202
aF1.2274926000000002
aF1.2255198
aF1.2234648000000001
aF1.2215468
aF1.2194644000000001
aF1.2174094000000002
aF1.215464
aF1.2133816000000002
aF1.2114088
aF1.2094086000000002
aF1.207381
aF1.2053534000000001
aF1.2034628
aF1.2013804000000001
aF1.1993802
aF1.1973526
aF1.1953524
aF1.193407
aF1.1913246000000002
aF1.189297
aF1.1873242000000002
aF1.1852692
aF1.1832416000000001
aF1.1812962
aF1.1792960000000001
aF1.1771862000000002
aF1.1752682
aF1.1731858000000002
aF1.1712678
aF1.1692128000000002
aF1.1671578
aF1.1651576000000001
aF1.1631574
aF1.1611846000000001
aF1.1591296
aF1.157102
aF1.1551292000000002
aF1.1530742
aF1.1511014000000002
aF1.1490738
aF1.1470462000000001
aF1.1450734
aF1.142991
aF1.1410182
aF1.1389906
aF1.1369904000000002
aF1.1349628
aF1.1329626000000002
aF1.1309898
aF1.1289622000000001
aF1.1269346
aF1.1249892000000001
aF1.1228520000000002
aF1.1209066
aF1.1188790000000002
aF1.1168514
aF1.1148786000000002
aF1.1128784
aF1.1106864
aF1.1087958
aF1.1068504000000001
aF1.1046858000000002
aF1.1026308
aF1.1006854000000001
aF1.0986304
aF1.0968220000000002
aF1.0947396
aF1.0926846000000001
aF1.0907392
aF1.0887116000000001
aF1.086684
aF1.0846838
aF1.0826836
aF1.0806286
aF1.0786284000000002
aF1.076683
aF1.0746006000000001
aF1.0725456
aF1.0706276000000001
aF1.0685726
aF1.066545
aF1.0645722
aF1.0624898
aF1.0605444000000002
aF1.0585442
aF1.0565166000000001
aF1.054489
aF1.0524888000000001
aF1.0504338
aF1.0483788
aF1.0464060000000002
aF1.0444332
aF1.0424056000000002
aF1.0404602
aF1.0383778000000001
aF1.036405
aF1.0343774000000001
aF1.0323498
aF1.030377
aF1.0283768
aF1.0263218
aF1.0243216000000002
aF1.022294
aF1.0202664000000001
aF1.0182936
aF1.0162660000000001
aF1.0142384
aF1.0122382
aF1.010238
aF1.0082104
aF1.0062102000000002
aF1.0041826
aF1.0021824000000001
aF1.0001822
aF0.9981546000000001
aF0.9961544000000001
aF0.9941268000000001
aF0.9920992000000001
aF0.9901538000000001
aF0.9880988
aF0.9860986
aF0.984071
aF0.9820434000000001
aF0.9799610000000001
aF0.9779882000000001
aF0.9759880000000001
aF0.9740700000000001
aF0.9719328
aF0.9699874
aF0.9679872
aF0.9659596
aF0.9639046000000001
aF0.9617948000000001
aF0.9597672
aF0.9578766000000001
aF0.9559312000000001
aF0.9537118000000001
aF0.9518212
aF0.9499032000000001
aF0.9478482
aF0.9457932000000001
aF0.9438204000000001
aF0.9417654000000001
aF0.9398200000000001
aF0.9377924000000001
aF0.9357648000000001
aF0.9337646000000001
aF0.931737
aF0.9297094
aF0.9277366
aF0.9257090000000001
aF0.9227224
aF0.9212428
aF0.9189686
aF0.9172150000000001
aF0.9149134000000001
aF0.9126940000000001
aF0.911324
aF0.9092964000000001
aF0.9067208000000001
aF0.9054604
aF0.9028848
aF0.9006654000000001
aF0.8990762000000001
aF0.8968842
aF0.8946374
aF0.8925550000000001
aF0.890911
aF0.8885820000000001
aF0.8870750000000001
aF0.8847734
aF0.8825540000000001
aF0.8813758
aF0.8783618000000001
aF0.8773754
aF0.8749368000000001
aF0.8734298
aF0.8712926000000001
aF0.8693746000000001
aF0.8673470000000001
aF0.8652372
aF0.8633192000000001
aF0.8613190000000001
aF0.859264
aF0.8572638
aF0.855291
aF0.8532634
aF0.8512632000000001
aF0.8492356000000001
aF0.8472628000000001
aF0.8452078000000001
aF0.8431528
aF0.8412074
aF0.8391798
aF0.8371796
aF0.8351794
aF0.8330422000000001
aF0.8311790000000001
aF0.8291240000000001
aF0.8270964000000001
aF0.8250962000000001
aF0.8231508000000001
aF0.821041
aF0.8189586000000001
aF0.8170132000000001
aF0.8149856000000001
aF0.8129306000000001
aF0.8100536
aF0.8084370000000001
aF0.806382
aF0.8039160000000001
aF0.8025460000000001
aF0.8007924000000001
aF0.7979428000000001
aF0.7968468000000001
aF0.7942164
aF0.7920518000000001
aF0.7907092
aF0.7881336000000001
aF0.785969
aF0.7845168
aF0.7821878000000001
aF0.7805986
aF0.7782422000000001
aF0.7758858000000001
aF0.7738582
aF0.7724334
aF0.7701044
aF0.7678302
aF0.7662958000000001
aF0.7640764000000001
aF0.761857
aF0.7606514000000001
aF0.7580210000000001
aF0.756514
aF0.7536918
aF0.7520752
aF0.7497188
aF0.74802
aF0.746102
aF0.7438826000000001
aF0.7414440000000001
aF0.7404302
aF0.7377724000000001
aF0.7359092
aF0.7343474000000001
aF0.7322924000000001
aF0.7297168
aF0.7283194000000001
aF0.7256616
aF0.723908
aF0.7214146
aF0.7197432
aF0.7182088000000001
aF0.7157428
aF0.7135508
aF0.7122904000000001
aF0.7095778
aF0.707879
aF0.7059884000000001
aF0.7038238
aF0.7015496
aF0.7001248000000001
aF0.6976862
aF0.6954942000000001
aF0.6943708000000001
aF0.6917678
aF0.689795
aF0.6872194
aF0.6857672
aF0.6832738
aF0.6820134000000001
aF0.6796844000000001
aF0.6776842000000001
aF0.6753004
aF0.6737660000000001
aF0.6713822
aF0.6698752
aF0.6675188000000001
aF0.6652172000000001
aF0.6640664000000001
aF0.6614634
aF0.659244
aF0.6579562
aF0.6554628
aF0.6539284000000001
aF0.651298
aF0.648695
aF0.6469688
aF0.6455714
aF0.6434068000000001
aF0.6414340000000001
aF0.6396256
aF0.6372144000000001
aF0.6351594
aF0.6336798
aF0.6314604
aF0.6295424000000001
aF0.6270216000000001
aF0.625268
aF0.6231582
aF0.6216786000000001
aF0.6187468
aF0.617596
aF0.6144724
aF0.6132394
aF0.610746
aF0.6095130000000001
aF0.6069648000000001
aF0.6052660000000001
aF0.6028
aF0.6006902000000001
aF0.5987174000000001
aF0.5969912
aF0.5946622
aF0.5926346
aF0.5913468000000001
aF0.5884972
aF0.5867984
aF0.5843872
aF0.5833734
aF0.5808252
aF0.5792086000000001
aF0.5765782
aF0.5746876000000001
aF0.573071
aF0.5707694000000001
aF0.5683308
aF0.5673170000000001
aF0.5646866
aF0.5630426000000001
aF0.5612068
aF0.5586586
aF0.5570694
aF0.5552062000000001
aF0.5529320000000001
aF0.5506578000000001
aF0.5492604000000001
aF0.5467944
aF0.5447394
aF0.5431502
aF0.5407664000000001
aF0.5390128000000001
aF0.536903
aF0.5347384000000001
aF0.5330944000000001
aF0.5306284
aF0.5286008000000001
aF0.5264362
aF0.5250936
aF0.5222166
aF0.5203260000000001
aF0.5191204
aF0.516764
aF0.5146268
aF0.5128458
aF0.5105716
aF0.5083248
aF0.5067904000000001
aF0.5044066
aF0.5022146000000001
aF0.501009
aF0.4984334
aF0.4962688
aF0.49481660000000005
aF0.49207660000000003
aF0.4900764
aF0.4889256
aF0.4861034
aF0.484569
aF0.48259620000000003
aF0.48010280000000005
aF0.47813000000000005
aF0.47678740000000003
aF0.4739104
aF0.4720746
aF0.4702388
aF0.4682934
aF0.46637540000000005
aF0.46440260000000005
aF0.46242980000000006
aF0.46001860000000006
aF0.45867600000000003
aF0.45686760000000004
aF0.454566
aF0.4524014
aF0.45009980000000005
aF0.4481818
aF0.4457706
aF0.4439074
aF0.44190720000000006
aF0.44034540000000005
aF0.43859180000000003
aF0.43604360000000003
aF0.4343174
aF0.43193360000000003
aF0.42987860000000006
aF0.4284812
aF0.4262344
aF0.42390540000000004
aF0.4223984
aF0.4199872
aF0.4177678
aF0.416343
aF0.41374000000000005
aF0.4119316
aF0.4102602
aF0.40760240000000003
aF0.40568440000000006
aF0.40406780000000003
aF0.4016292
aF0.3995194
aF0.3974918
aF0.3962588
aF0.39360100000000003
aF0.3922858
aF0.3889978
aF0.38754560000000005
aF0.38614820000000005
aF0.3833534
aF0.38157240000000003
aF0.3797914
aF0.3775446
aF0.3752978
aF0.374147
aF0.3713248
aF0.36943420000000005
aF0.3682286
aF0.36529680000000003
aF0.3632692
aF0.3619814
aF0.3594606
aF0.35737820000000003
aF0.3554602
aF0.3538162
aF0.351268
aF0.35003500000000004
aF0.347295
aF0.34537700000000005
aF0.3437604
aF0.34085600000000005
aF0.33981480000000003
aF0.3377598
aF0.33565
aF0.33332100000000003
aF0.33154
aF0.3292932
aF0.32751220000000003
aF0.325512
aF0.32301860000000004
aF0.3212102
aF0.31989500000000004
aF0.317292
aF0.3150178
aF0.31337380000000004
aF0.3120038
aF0.31000360000000005
aF0.3079486
aF0.30589360000000004
aF0.30389340000000004
aF0.30192060000000004
aF0.2998382
aF0.2978654
aF0.2958652
aF0.2938102
aF0.2918374
aF0.2898098
aF0.2877274
aF0.28578200000000004
aF0.28378180000000003
aF0.2817816
aF0.2797814
aF0.2777538
aF0.27575360000000004
aF0.2738082
aF0.2716984
aF0.2696982
aF0.267698
aF0.26567040000000003
aF0.2636702
aF0.2616426
aF0.2596424
aF0.25764220000000004
aF0.2555872
aF0.25364180000000003
aF0.25155940000000004
aF0.24958660000000002
aF0.24755900000000003
aF0.2455314
aF0.24353120000000003
aF0.24153100000000002
aF0.23953080000000002
aF0.23758540000000003
aF0.23544820000000002
aF0.23347540000000003
aF0.2314478
aF0.22944760000000003
aF0.22744740000000002
aF0.22544720000000001
aF0.2233922
aF0.22141940000000002
aF0.2194192
aF0.2173642
aF0.2153914
aF0.21336380000000002
aF0.2113362
aF0.20933600000000002
aF0.20733580000000001
aF0.2050616
aF0.2031436
aF0.20133520000000002
aF0.19928020000000002
aF0.1972526
aF0.19525240000000002
aF0.1932522
aF0.19122460000000002
aF0.189197
aF0.1872242
aF0.18500480000000002
aF0.1830594
aF0.1811962
aF0.1791686
aF0.17714100000000002
aF0.17500380000000001
aF0.1731406
aF0.17111300000000002
aF0.16914020000000002
aF0.16708520000000002
aF0.1649206
aF0.16305740000000002
aF0.1610298
aF0.15908440000000001
aF0.157002
aF0.1550292
aF0.15280980000000002
aF0.15089180000000002
aF0.14883680000000002
aF0.14686400000000002
aF0.14486380000000001
aF0.1429458
aF0.1409456
aF0.1387536
aF0.13672600000000001
aF0.1349176
aF0.13289
aF0.1308076
aF0.1288622
aF0.1268072
aF0.12480700000000002
aF0.12286160000000002
aF0.12080660000000001
aF0.11864200000000001
aF0.1167514
aF0.11475120000000001
aF0.11425800000000001
aF0.11425800000000001
aF0.11425800000000001
aF0.11425800000000001
aF0.11425800000000001
aF0.11425800000000001
aF0.11425800000000001
aF0.11425800000000001
aF0.11425800000000001
aF0.11425800000000001
aF0.11425800000000001
aF0.11425800000000001
aF0.11425800000000001
aF0.11425800000000001
aF0.11425800000000001
aF0.11425800000000001
aF0.11425800000000001
aF0.11425800000000001
aF0.11425800000000001
aF0.11425800000000001
aF0.11425800000000001
aF0.11425800000000001
aF0.11425800000000001
aF0.11425800000000001
aF0.11425800000000001
aF0.11425800000000001
aF0.11425800000000001
aF0.11425800000000001
aF0.11425800000000001
aF0.11425800000000001
aF0.11425800000000001
aF0.11425800000000001
aF0.11425800000000001
aF0.11425800000000001
aF0.11425800000000001
aF0.11425800000000001
aF0.11425800000000001
aF0.11425800000000001
aF0.11425800000000001
aF0.11425800000000001
aF0.11425800000000001
aF0.11425800000000001
aF0.11425800000000001
aF0.11425800000000001
aF0.11425800000000001
aF0.11425800000000001
aF0.11425800000000001
aF0.11425800000000001
aF0.11425800000000001
aF0.11425800000000001
aF0.11425800000000001
aF0.11425800000000001
aF0.11425800000000001
aF0.11425800000000001
aF0.11425800000000001
aF0.11425800000000001
aF0.11425800000000001
aF0.11425800000000001
aF0.11425800000000001
aF0.11425800000000001
aF0.11425800000000001
aF0.11425800000000001
aF0.11425800000000001
aF0.11425800000000001
aF0.11425800000000001
aF0.11425800000000001
aF0.11425800000000001
aF0.11425800000000001
aF0.11425800000000001
aF0.11425800000000001
aF0.11425800000000001
aF0.11425800000000001
aF0.11425800000000001
aF0.11425800000000001
aF0.11425800000000001
aF0.11425800000000001
aF0.11425800000000001
aF0.11425800000000001
aF0.11425800000000001
aF0.11425800000000001
aF0.11425800000000001
aF0.11425800000000001
aF0.11425800000000001
aF0.11425800000000001
aF0.11425800000000001
aF0.11425800000000001
aF0.11425800000000001
aF0.11425800000000001
aF0.11425800000000001
aF0.11425800000000001
aF0.11425800000000001
aF0.11425800000000001
aF0.11425800000000001
aF0.11425800000000001
aF0.11425800000000001
aF0.11425800000000001
aF0.11425800000000001
aF0.11425800000000001
aF0.11425800000000001
aF0.11425800000000001
aF0.11425800000000001
aF0.11425800000000001
aF0.11425800000000001
aF0.11425800000000001
aF0.11425800000000001
aF0.11425800000000001
aF0.11425800000000001
aF0.11425800000000001
aF0.11425800000000001
aF0.11425800000000001
aF0.11425800000000001
aF0.11425800000000001
aF0.11425800000000001
aF0.11425800000000001
aF0.11425800000000001
aF0.11425800000000001
aF0.11425800000000001
as.