(dp0
S'0000000329'
p1
(dp2
S'date'
p3
S'20130420'
p4
sS'secs'
p5
I1366494610
sS'cameraIdentifier'
p6
S'camera'
p7
sS'nsecs'
p8
I839238086
ssS'0000000328'
p9
(dp10
g3
g4
sg5
I1366494610
sg6
S'camera'
p11
sg8
I819237340
ssS'0000000046'
p12
(dp13
g3
g4
sg5
I1366494605
sg6
S'camera'
p14
sg8
I179024412
ssS'0000000047'
p15
(dp16
g3
g4
sg5
I1366494605
sg6
S'camera'
p17
sg8
I199025180
ssS'0000000044'
p18
(dp19
g3
g4
sg5
I1366494605
sg6
S'camera'
p20
sg8
I139022857
ssS'0000000045'
p21
(dp22
g3
g4
sg5
I1366494605
sg6
S'camera'
p23
sg8
I159023676
ssS'0000000042'
p24
(dp25
g3
g4
sg5
I1366494605
sg6
S'camera'
p26
sg8
I99021393
ssS'0000000043'
p27
(dp28
g3
g4
sg5
I1366494605
sg6
S'camera'
p29
sg8
I119022118
ssS'0000000040'
p30
(dp31
g3
g4
sg5
I1366494605
sg6
S'camera'
p32
sg8
I59019888
ssS'0000000041'
p33
(dp34
g3
g4
sg5
I1366494605
sg6
S'camera'
p35
sg8
I79020635
ssS'0000000121'
p36
(dp37
g3
g4
sg5
I1366494606
sg6
S'camera'
p38
sg8
I679080663
ssS'0000000120'
p39
(dp40
g3
g4
sg5
I1366494606
sg6
S'camera'
p41
sg8
I659079897
ssS'0000000123'
p42
(dp43
g3
g4
sg5
I1366494606
sg6
S'camera'
p44
sg8
I719082185
ssS'0000000122'
p45
(dp46
g3
g4
sg5
I1366494606
sg6
S'camera'
p47
sg8
I699081425
ssS'0000000125'
p48
(dp49
g3
g4
sg5
I1366494606
sg6
S'camera'
p50
sg8
I759083671
ssS'0000000124'
p51
(dp52
g3
g4
sg5
I1366494606
sg6
S'camera'
p53
sg8
I739082948
ssS'0000000048'
p54
(dp55
g3
g4
sg5
I1366494605
sg6
S'camera'
p56
sg8
I219025935
ssS'0000000049'
p57
(dp58
g3
g4
sg5
I1366494605
sg6
S'camera'
p59
sg8
I239026663
ssS'0000000323'
p60
(dp61
g3
g4
sg5
I1366494610
sg6
S'camera'
p62
sg8
I719233659
ssS'0000000322'
p63
(dp64
g3
g4
sg5
I1366494610
sg6
S'camera'
p65
sg8
I699232909
ssS'0000000510'
p66
(dp67
g3
g4
sg5
I1366494614
sg6
S'camera'
p68
sg8
I459375027
ssS'0000000443'
p69
(dp70
g3
g4
sg5
I1366494613
sg6
S'camera'
p71
sg8
I119324392
ssS'0000000349'
p72
(dp73
g3
g4
sg5
I1366494611
sg6
S'camera'
p74
sg8
I239253536
ssS'0000000348'
p75
(dp76
g3
g4
sg5
I1366494611
sg6
S'camera'
p77
sg8
I219252775
ssS'0000000345'
p78
(dp79
g3
g4
sg5
I1366494611
sg6
S'camera'
p80
sg8
I159250494
ssS'0000000344'
p81
(dp82
g3
g4
sg5
I1366494611
sg6
S'camera'
p83
sg8
I139249736
ssS'0000000347'
p84
(dp85
g3
g4
sg5
I1366494611
sg6
S'camera'
p86
sg8
I199252019
ssS'0000000346'
p87
(dp88
g3
g4
sg5
I1366494611
sg6
S'camera'
p89
sg8
I179251262
ssS'0000000341'
p90
(dp91
g3
g4
sg5
I1366494611
sg6
S'camera'
p92
sg8
I79247466
ssS'0000000340'
p93
(dp94
g3
g4
sg5
I1366494611
sg6
S'camera'
p95
sg8
I59246703
ssS'0000000343'
p96
(dp97
g3
g4
sg5
I1366494611
sg6
S'camera'
p98
sg8
I119248960
ssS'0000000342'
p99
(dp100
g3
g4
sg5
I1366494611
sg6
S'camera'
p101
sg8
I99248202
ssS'0000000464'
p102
(dp103
g3
g4
sg5
I1366494613
sg6
S'camera'
p104
sg8
I539340403
ssS'0000000465'
p105
(dp106
g3
g4
sg5
I1366494613
sg6
S'camera'
p107
sg8
I559341170
ssS'0000000466'
p108
(dp109
g3
g4
sg5
I1366494613
sg6
S'camera'
p110
sg8
I579341934
ssS'0000000467'
p111
(dp112
g3
g4
sg5
I1366494613
sg6
S'camera'
p113
sg8
I599342691
ssS'0000000460'
p114
(dp115
g3
g4
sg5
I1366494613
sg6
S'camera'
p116
sg8
I459337411
ssS'0000000461'
p117
(dp118
g3
g4
sg5
I1366494613
sg6
S'camera'
p119
sg8
I479338157
ssS'0000000462'
p120
(dp121
g3
g4
sg5
I1366494613
sg6
S'camera'
p122
sg8
I499338917
ssS'0000000463'
p123
(dp124
g3
g4
sg5
I1366494613
sg6
S'camera'
p125
sg8
I519339672
ssS'0000000468'
p126
(dp127
g3
g4
sg5
I1366494613
sg6
S'camera'
p128
sg8
I619343408
ssS'0000000448'
p129
(dp130
g3
g4
sg5
I1366494613
sg6
S'camera'
p131
sg8
I219328261
ssS'0000000473'
p132
(dp133
g3
g4
sg5
I1366494613
sg6
S'camera'
p134
sg8
I719347107
ssS'0000000472'
p135
(dp136
g3
g4
sg5
I1366494613
sg6
S'camera'
p137
sg8
I699346350
ssS'0000000129'
p138
(dp139
g3
g4
sg5
I1366494606
sg6
S'camera'
p140
sg8
I839086706
ssS'0000000128'
p141
(dp142
g3
g4
sg5
I1366494606
sg6
S'camera'
p143
sg8
I819085925
ssS'0000000082'
p144
(dp145
g3
g4
sg5
I1366494605
sg6
S'camera'
p146
sg8
I899051121
ssS'0000000083'
p147
(dp148
g3
g4
sg5
I1366494605
sg6
S'camera'
p149
sg8
I919051880
ssS'0000000080'
p150
(dp151
g3
g4
sg5
I1366494605
sg6
S'camera'
p152
sg8
I859049613
ssS'0000000081'
p153
(dp154
g3
g4
sg5
I1366494605
sg6
S'camera'
p155
sg8
I879050363
ssS'0000000086'
p156
(dp157
g3
g4
sg5
I1366494605
sg6
S'camera'
p158
sg8
I979054168
ssS'0000000127'
p159
(dp160
g3
g4
sg5
I1366494606
sg6
S'camera'
p161
sg8
I799085188
ssS'0000000084'
p162
(dp163
g3
g4
sg5
I1366494605
sg6
S'camera'
p164
sg8
I939052598
ssS'0000000085'
p165
(dp166
g3
g4
sg5
I1366494605
sg6
S'camera'
p167
sg8
I959053403
ssS'0000000088'
p168
(dp169
g3
g4
sg5
I1366494606
sg6
S'camera'
p170
sg8
I19055660
ssS'0000000126'
p171
(dp172
g3
g4
sg5
I1366494606
sg6
S'camera'
p173
sg8
I779084437
ssS'0000000165'
p174
(dp175
g3
g4
sg5
I1366494607
sg6
S'camera'
p176
sg8
I559114070
ssS'0000000164'
p177
(dp178
g3
g4
sg5
I1366494607
sg6
S'camera'
p179
sg8
I539113339
ssS'0000000167'
p180
(dp181
g3
g4
sg5
I1366494607
sg6
S'camera'
p182
sg8
I599115595
ssS'0000000166'
p183
(dp184
g3
g4
sg5
I1366494607
sg6
S'camera'
p185
sg8
I579114835
ssS'0000000248'
p186
(dp187
g3
g4
sg5
I1366494609
sg6
S'camera'
p188
sg8
I219176814
ssS'0000000249'
p189
(dp190
g3
g4
sg5
I1366494609
sg6
S'camera'
p191
sg8
I239177577
ssS'0000000163'
p192
(dp193
g3
g4
sg5
I1366494607
sg6
S'camera'
p194
sg8
I519112570
ssS'0000000162'
p195
(dp196
g3
g4
sg5
I1366494607
sg6
S'camera'
p197
sg8
I499111810
ssS'0000000244'
p198
(dp199
g3
g4
sg5
I1366494609
sg6
S'camera'
p200
sg8
I139173805
ssS'0000000245'
p201
(dp202
g3
g4
sg5
I1366494609
sg6
S'camera'
p203
sg8
I159174593
ssS'0000000246'
p204
(dp205
g3
g4
sg5
I1366494609
sg6
S'camera'
p206
sg8
I179175321
ssS'0000000247'
p207
(dp208
g3
g4
sg5
I1366494609
sg6
S'camera'
p209
sg8
I199176057
ssS'0000000169'
p210
(dp211
g3
g4
sg5
I1366494607
sg6
S'camera'
p212
sg8
I639117131
ssS'0000000168'
p213
(dp214
g3
g4
sg5
I1366494607
sg6
S'camera'
p215
sg8
I619116352
ssS'0000000242'
p216
(dp217
g3
g4
sg5
I1366494609
sg6
S'camera'
p218
sg8
I99172340
ssS'0000000243'
p219
(dp220
g3
g4
sg5
I1366494609
sg6
S'camera'
p221
sg8
I119173084
ssS'0000000176'
p222
(dp223
g3
g4
sg5
I1366494607
sg6
S'camera'
p224
sg8
I779122437
ssS'0000000177'
p225
(dp226
g3
g4
sg5
I1366494607
sg6
S'camera'
p227
sg8
I799123159
ssS'0000000019'
p228
(dp229
g3
g4
sg5
I1366494604
sg6
S'camera'
p230
sg8
I639004143
ssS'0000000018'
p231
(dp232
g3
g4
sg5
I1366494604
sg6
S'camera'
p233
sg8
I619003429
ssS'0000000011'
p234
(dp235
g3
g4
sg5
I1366494604
sg6
S'camera'
p236
sg8
I478998179
ssS'0000000010'
p237
(dp238
g3
g4
sg5
I1366494604
sg6
S'camera'
p239
sg8
I458997419
ssS'0000000013'
p240
(dp241
g3
g4
sg5
I1366494604
sg6
S'camera'
p242
sg8
I518999700
ssS'0000000012'
p243
(dp244
g3
g4
sg5
I1366494604
sg6
S'camera'
p245
sg8
I498998944
ssS'0000000015'
p246
(dp247
g3
g4
sg5
I1366494604
sg6
S'camera'
p248
sg8
I559001193
ssS'0000000014'
p249
(dp250
g3
g4
sg5
I1366494604
sg6
S'camera'
p251
sg8
I539000450
ssS'0000000017'
p252
(dp253
g3
g4
sg5
I1366494604
sg6
S'camera'
p254
sg8
I599002684
ssS'0000000016'
p255
(dp256
g3
g4
sg5
I1366494604
sg6
S'camera'
p257
sg8
I579001951
ssS'0000000386'
p258
(dp259
g3
g4
sg5
I1366494611
sg6
S'camera'
p260
sg8
I979281470
ssS'0000000420'
p261
(dp262
g3
g4
sg5
I1366494612
sg6
S'camera'
p263
sg8
I659307046
ssS'0000000421'
p264
(dp265
g3
g4
sg5
I1366494612
sg6
S'camera'
p266
sg8
I679307762
ssS'0000000422'
p267
(dp268
g3
g4
sg5
I1366494612
sg6
S'camera'
p269
sg8
I699308517
ssS'0000000423'
p270
(dp271
g3
g4
sg5
I1366494612
sg6
S'camera'
p272
sg8
I719309273
ssS'0000000424'
p273
(dp274
g3
g4
sg5
I1366494612
sg6
S'camera'
p275
sg8
I739310013
ssS'0000000425'
p276
(dp277
g3
g4
sg5
I1366494612
sg6
S'camera'
p278
sg8
I759310763
ssS'0000000426'
p279
(dp280
g3
g4
sg5
I1366494612
sg6
S'camera'
p281
sg8
I779311520
ssS'0000000427'
p282
(dp283
g3
g4
sg5
I1366494612
sg6
S'camera'
p284
sg8
I799312279
ssS'0000000428'
p285
(dp286
g3
g4
sg5
I1366494612
sg6
S'camera'
p287
sg8
I819313015
ssS'0000000429'
p288
(dp289
g3
g4
sg5
I1366494612
sg6
S'camera'
p290
sg8
I839313777
ssS'0000000277'
p291
(dp292
g3
g4
sg5
I1366494609
sg6
S'camera'
p293
sg8
I799198772
ssS'0000000179'
p294
(dp295
g3
g4
sg5
I1366494607
sg6
S'camera'
p296
sg8
I839124632
ssS'0000000108'
p297
(dp298
g3
g4
sg5
I1366494606
sg6
S'camera'
p299
sg8
I419070903
ssS'0000000389'
p300
(dp301
g3
g4
sg5
I1366494612
sg6
S'camera'
p302
sg8
I39283727
ssS'0000000388'
p303
(dp304
g3
g4
sg5
I1366494612
sg6
S'camera'
p305
sg8
I19282960
ssS'0000000334'
p306
(dp307
g3
g4
sg5
I1366494610
sg6
S'camera'
p308
sg8
I939242193
ssS'0000000335'
p309
(dp310
g3
g4
sg5
I1366494610
sg6
S'camera'
p311
sg8
I959242943
ssS'0000000336'
p312
(dp313
g3
g4
sg5
I1366494610
sg6
S'camera'
p314
sg8
I979243701
ssS'0000000337'
p315
(dp316
g3
g4
sg5
I1366494610
sg6
S'camera'
p317
sg8
I999244450
ssS'0000000330'
p318
(dp319
g3
g4
sg5
I1366494610
sg6
S'camera'
p320
sg8
I859239163
ssS'0000000331'
p321
(dp322
g3
g4
sg5
I1366494610
sg6
S'camera'
p323
sg8
I879239901
ssS'0000000332'
p324
(dp325
g3
g4
sg5
I1366494610
sg6
S'camera'
p326
sg8
I899240666
ssS'0000000333'
p327
(dp328
g3
g4
sg5
I1366494610
sg6
S'camera'
p329
sg8
I919241431
ssS'0000000338'
p330
(dp331
g3
g4
sg5
I1366494611
sg6
S'camera'
p332
sg8
I19245201
ssS'0000000339'
p333
(dp334
g3
g4
sg5
I1366494611
sg6
S'camera'
p335
sg8
I39245928
ssS'0000000358'
p336
(dp337
g3
g4
sg5
I1366494611
sg6
S'camera'
p338
sg8
I419260302
ssS'0000000382'
p339
(dp340
g3
g4
sg5
I1366494611
sg6
S'camera'
p341
sg8
I899278446
ssS'0000000192'
p342
(dp343
g3
g4
sg5
I1366494608
sg6
S'camera'
p344
sg8
I99134543
ssS'0000000193'
p345
(dp346
g3
g4
sg5
I1366494608
sg6
S'camera'
p347
sg8
I119135297
ssS'0000000208'
p348
(dp349
g3
g4
sg5
I1366494608
sg6
S'camera'
p350
sg8
I419146412
ssS'0000000209'
p351
(dp352
g3
g4
sg5
I1366494608
sg6
S'camera'
p353
sg8
I439147145
ssS'0000000387'
p354
(dp355
g3
g4
sg5
I1366494611
sg6
S'camera'
p356
sg8
I999282209
ssS'0000000200'
p357
(dp358
g3
g4
sg5
I1366494608
sg6
S'camera'
p359
sg8
I259140447
ssS'0000000201'
p360
(dp361
g3
g4
sg5
I1366494608
sg6
S'camera'
p362
sg8
I279141195
ssS'0000000202'
p363
(dp364
g3
g4
sg5
I1366494608
sg6
S'camera'
p365
sg8
I299141920
ssS'0000000203'
p366
(dp367
g3
g4
sg5
I1366494608
sg6
S'camera'
p368
sg8
I319142682
ssS'0000000204'
p369
(dp370
g3
g4
sg5
I1366494608
sg6
S'camera'
p371
sg8
I339143443
ssS'0000000205'
p372
(dp373
g3
g4
sg5
I1366494608
sg6
S'camera'
p374
sg8
I359144187
ssS'0000000206'
p375
(dp376
g3
g4
sg5
I1366494608
sg6
S'camera'
p377
sg8
I379144959
ssS'0000000207'
p378
(dp379
g3
g4
sg5
I1366494608
sg6
S'camera'
p380
sg8
I399145676
ssS'0000000213'
p381
(dp382
g3
g4
sg5
I1366494608
sg6
S'camera'
p383
sg8
I519150182
ssS'0000000212'
p384
(dp385
g3
g4
sg5
I1366494608
sg6
S'camera'
p386
sg8
I499149427
ssS'0000000055'
p387
(dp388
g3
g4
sg5
I1366494605
sg6
S'camera'
p389
sg8
I359031265
ssS'0000000054'
p390
(dp391
g3
g4
sg5
I1366494605
sg6
S'camera'
p392
sg8
I339030504
ssS'0000000057'
p393
(dp394
g3
g4
sg5
I1366494605
sg6
S'camera'
p395
sg8
I399032699
ssS'0000000056'
p396
(dp397
g3
g4
sg5
I1366494605
sg6
S'camera'
p398
sg8
I379031981
ssS'0000000118'
p399
(dp400
g3
g4
sg5
I1366494606
sg6
S'camera'
p401
sg8
I619078444
ssS'0000000119'
p402
(dp403
g3
g4
sg5
I1366494606
sg6
S'camera'
p404
sg8
I639079161
ssS'0000000053'
p405
(dp406
g3
g4
sg5
I1366494605
sg6
S'camera'
p407
sg8
I319029746
ssS'0000000052'
p408
(dp409
g3
g4
sg5
I1366494605
sg6
S'camera'
p410
sg8
I299028986
ssS'0000000114'
p411
(dp412
g3
g4
sg5
I1366494606
sg6
S'camera'
p413
sg8
I539075397
ssS'0000000115'
p414
(dp415
g3
g4
sg5
I1366494606
sg6
S'camera'
p416
sg8
I559076169
ssS'0000000116'
p417
(dp418
g3
g4
sg5
I1366494606
sg6
S'camera'
p419
sg8
I579076923
ssS'0000000117'
p420
(dp421
g3
g4
sg5
I1366494606
sg6
S'camera'
p422
sg8
I599077687
ssS'0000000059'
p423
(dp424
g3
g4
sg5
I1366494605
sg6
S'camera'
p425
sg8
I439034174
ssS'0000000058'
p426
(dp427
g3
g4
sg5
I1366494605
sg6
S'camera'
p428
sg8
I419033435
ssS'0000000112'
p429
(dp430
g3
g4
sg5
I1366494606
sg6
S'camera'
p431
sg8
I499073890
ssS'0000000113'
p432
(dp433
g3
g4
sg5
I1366494606
sg6
S'camera'
p434
sg8
I519074646
ssS'0000000399'
p435
(dp436
g3
g4
sg5
I1366494612
sg6
S'camera'
p437
sg8
I239291173
ssS'0000000507'
p438
(dp439
g3
g4
sg5
I1366494614
sg6
S'camera'
p440
sg8
I399372809
ssS'0000000506'
p441
(dp442
g3
g4
sg5
I1366494614
sg6
S'camera'
p443
sg8
I379372078
ssS'0000000505'
p444
(dp445
g3
g4
sg5
I1366494614
sg6
S'camera'
p446
sg8
I359371348
ssS'0000000504'
p447
(dp448
g3
g4
sg5
I1366494614
sg6
S'camera'
p449
sg8
I339370573
ssS'0000000503'
p450
(dp451
g3
g4
sg5
I1366494614
sg6
S'camera'
p452
sg8
I319369846
ssS'0000000502'
p453
(dp454
g3
g4
sg5
I1366494614
sg6
S'camera'
p455
sg8
I299369096
ssS'0000000501'
p456
(dp457
g3
g4
sg5
I1366494614
sg6
S'camera'
p458
sg8
I279368356
ssS'0000000500'
p459
(dp460
g3
g4
sg5
I1366494614
sg6
S'camera'
p461
sg8
I259367615
ssS'0000000509'
p462
(dp463
g3
g4
sg5
I1366494614
sg6
S'camera'
p464
sg8
I439374317
ssS'0000000508'
p465
(dp466
g3
g4
sg5
I1366494614
sg6
S'camera'
p467
sg8
I419373550
ssS'0000000469'
p468
(dp469
g3
g4
sg5
I1366494613
sg6
S'camera'
p470
sg8
I639344151
ssS'0000000370'
p471
(dp472
g3
g4
sg5
I1366494611
sg6
S'camera'
p473
sg8
I659269372
ssS'0000000371'
p474
(dp475
g3
g4
sg5
I1366494611
sg6
S'camera'
p476
sg8
I679270134
ssS'0000000372'
p477
(dp478
g3
g4
sg5
I1366494611
sg6
S'camera'
p479
sg8
I699270905
ssS'0000000373'
p480
(dp481
g3
g4
sg5
I1366494611
sg6
S'camera'
p482
sg8
I719271643
ssS'0000000374'
p483
(dp484
g3
g4
sg5
I1366494611
sg6
S'camera'
p485
sg8
I739272378
ssS'0000000375'
p486
(dp487
g3
g4
sg5
I1366494611
sg6
S'camera'
p488
sg8
I759273142
ssS'0000000376'
p489
(dp490
g3
g4
sg5
I1366494611
sg6
S'camera'
p491
sg8
I779273899
ssS'0000000377'
p492
(dp493
g3
g4
sg5
I1366494611
sg6
S'camera'
p494
sg8
I799274660
ssS'0000000378'
p495
(dp496
g3
g4
sg5
I1366494611
sg6
S'camera'
p497
sg8
I819275411
ssS'0000000379'
p498
(dp499
g3
g4
sg5
I1366494611
sg6
S'camera'
p500
sg8
I839276156
ssS'0000000471'
p501
(dp502
g3
g4
sg5
I1366494613
sg6
S'camera'
p503
sg8
I679345619
ssS'0000000470'
p504
(dp505
g3
g4
sg5
I1366494613
sg6
S'camera'
p506
sg8
I659344854
ssS'0000000477'
p507
(dp508
g3
g4
sg5
I1366494613
sg6
S'camera'
p509
sg8
I799350169
ssS'0000000476'
p510
(dp511
g3
g4
sg5
I1366494613
sg6
S'camera'
p512
sg8
I779349411
ssS'0000000475'
p513
(dp514
g3
g4
sg5
I1366494613
sg6
S'camera'
p515
sg8
I759348647
ssS'0000000474'
p516
(dp517
g3
g4
sg5
I1366494613
sg6
S'camera'
p518
sg8
I739347839
ssS'0000000486'
p519
(dp520
g3
g4
sg5
I1366494613
sg6
S'camera'
p521
sg8
I979357069
ssS'0000000487'
p522
(dp523
g3
g4
sg5
I1366494613
sg6
S'camera'
p524
sg8
I999357791
ssS'0000000484'
p525
(dp526
g3
g4
sg5
I1366494613
sg6
S'camera'
p527
sg8
I939355507
ssS'0000000485'
p528
(dp529
g3
g4
sg5
I1366494613
sg6
S'camera'
p530
sg8
I959356296
ssS'0000000482'
p531
(dp532
g3
g4
sg5
I1366494613
sg6
S'camera'
p533
sg8
I899353998
ssS'0000000483'
p534
(dp535
g3
g4
sg5
I1366494613
sg6
S'camera'
p536
sg8
I919354753
ssS'0000000480'
p537
(dp538
g3
g4
sg5
I1366494613
sg6
S'camera'
p539
sg8
I859352472
ssS'0000000481'
p540
(dp541
g3
g4
sg5
I1366494613
sg6
S'camera'
p542
sg8
I879353247
ssS'0000000488'
p543
(dp544
g3
g4
sg5
I1366494614
sg6
S'camera'
p545
sg8
I19358545
ssS'0000000489'
p546
(dp547
g3
g4
sg5
I1366494614
sg6
S'camera'
p548
sg8
I39359291
ssS'0000000031'
p549
(dp550
g3
g4
sg5
I1366494604
sg6
S'camera'
p551
sg8
I879013190
ssS'0000000158'
p552
(dp553
g3
g4
sg5
I1366494607
sg6
S'camera'
p554
sg8
I419108732
ssS'0000000159'
p555
(dp556
g3
g4
sg5
I1366494607
sg6
S'camera'
p557
sg8
I439109492
ssS'0000000093'
p558
(dp559
g3
g4
sg5
I1366494606
sg6
S'camera'
p560
sg8
I119059407
ssS'0000000092'
p561
(dp562
g3
g4
sg5
I1366494606
sg6
S'camera'
p563
sg8
I99058667
ssS'0000000095'
p564
(dp565
g3
g4
sg5
I1366494606
sg6
S'camera'
p566
sg8
I159060917
ssS'0000000094'
p567
(dp568
g3
g4
sg5
I1366494606
sg6
S'camera'
p569
sg8
I139060163
ssS'0000000097'
p570
(dp571
g3
g4
sg5
I1366494606
sg6
S'camera'
p572
sg8
I199062447
ssS'0000000096'
p573
(dp574
g3
g4
sg5
I1366494606
sg6
S'camera'
p575
sg8
I179061683
ssS'0000000150'
p576
(dp577
g3
g4
sg5
I1366494607
sg6
S'camera'
p578
sg8
I259102712
ssS'0000000151'
p579
(dp580
g3
g4
sg5
I1366494607
sg6
S'camera'
p581
sg8
I279103477
ssS'0000000152'
p582
(dp583
g3
g4
sg5
I1366494607
sg6
S'camera'
p584
sg8
I299104238
ssS'0000000153'
p585
(dp586
g3
g4
sg5
I1366494607
sg6
S'camera'
p587
sg8
I319104980
ssS'0000000154'
p588
(dp589
g3
g4
sg5
I1366494607
sg6
S'camera'
p590
sg8
I339105725
ssS'0000000155'
p591
(dp592
g3
g4
sg5
I1366494607
sg6
S'camera'
p593
sg8
I359106464
ssS'0000000156'
p594
(dp595
g3
g4
sg5
I1366494607
sg6
S'camera'
p596
sg8
I379107228
ssS'0000000157'
p597
(dp598
g3
g4
sg5
I1366494607
sg6
S'camera'
p599
sg8
I399107984
ssS'0000000253'
p600
(dp601
g3
g4
sg5
I1366494609
sg6
S'camera'
p602
sg8
I319180700
ssS'0000000252'
p603
(dp604
g3
g4
sg5
I1366494609
sg6
S'camera'
p605
sg8
I299179930
ssS'0000000251'
p606
(dp607
g3
g4
sg5
I1366494609
sg6
S'camera'
p608
sg8
I279179186
ssS'0000000250'
p609
(dp610
g3
g4
sg5
I1366494609
sg6
S'camera'
p611
sg8
I259178417
ssS'0000000257'
p612
(dp613
g3
g4
sg5
I1366494609
sg6
S'camera'
p614
sg8
I399183739
ssS'0000000256'
p615
(dp616
g3
g4
sg5
I1366494609
sg6
S'camera'
p617
sg8
I379182985
ssS'0000000255'
p618
(dp619
g3
g4
sg5
I1366494609
sg6
S'camera'
p620
sg8
I359182249
ssS'0000000254'
p621
(dp622
g3
g4
sg5
I1366494609
sg6
S'camera'
p623
sg8
I339181478
ssS'0000000392'
p624
(dp625
g3
g4
sg5
I1366494612
sg6
S'camera'
p626
sg8
I99285970
ssS'0000000393'
p627
(dp628
g3
g4
sg5
I1366494612
sg6
S'camera'
p629
sg8
I119286729
ssS'0000000259'
p630
(dp631
g3
g4
sg5
I1366494609
sg6
S'camera'
p632
sg8
I439185235
ssS'0000000258'
p633
(dp634
g3
g4
sg5
I1366494609
sg6
S'camera'
p635
sg8
I419184497
ssS'0000000396'
p636
(dp637
g3
g4
sg5
I1366494612
sg6
S'camera'
p638
sg8
I179288963
ssS'0000000397'
p639
(dp640
g3
g4
sg5
I1366494612
sg6
S'camera'
p641
sg8
I199289714
ssS'0000000394'
p642
(dp643
g3
g4
sg5
I1366494612
sg6
S'camera'
p644
sg8
I139287454
ssS'0000000395'
p645
(dp646
g3
g4
sg5
I1366494612
sg6
S'camera'
p647
sg8
I159288220
ssS'0000000039'
p648
(dp649
g3
g4
sg5
I1366494605
sg6
S'camera'
p650
sg8
I39019141
ssS'0000000038'
p651
(dp652
g3
g4
sg5
I1366494605
sg6
S'camera'
p653
sg8
I19018423
ssS'0000000028'
p654
(dp655
g3
g4
sg5
I1366494604
sg6
S'camera'
p656
sg8
I819010931
ssS'0000000029'
p657
(dp658
g3
g4
sg5
I1366494604
sg6
S'camera'
p659
sg8
I839011687
ssS'0000000024'
p660
(dp661
g3
g4
sg5
I1366494604
sg6
S'camera'
p662
sg8
I739007948
ssS'0000000025'
p663
(dp664
g3
g4
sg5
I1366494604
sg6
S'camera'
p665
sg8
I759008714
ssS'0000000026'
p666
(dp667
g3
g4
sg5
I1366494604
sg6
S'camera'
p668
sg8
I779009476
ssS'0000000027'
p669
(dp670
g3
g4
sg5
I1366494604
sg6
S'camera'
p671
sg8
I799010185
ssS'0000000020'
p672
(dp673
g3
g4
sg5
I1366494604
sg6
S'camera'
p674
sg8
I659004889
ssS'0000000021'
p675
(dp676
g3
g4
sg5
I1366494604
sg6
S'camera'
p677
sg8
I679005649
ssS'0000000022'
p678
(dp679
g3
g4
sg5
I1366494604
sg6
S'camera'
p680
sg8
I699006409
ssS'0000000023'
p681
(dp682
g3
g4
sg5
I1366494604
sg6
S'camera'
p683
sg8
I719007180
ssS'0000000437'
p684
(dp685
g3
g4
sg5
I1366494612
sg6
S'camera'
p686
sg8
I999319924
ssS'0000000436'
p687
(dp688
g3
g4
sg5
I1366494612
sg6
S'camera'
p689
sg8
I979319196
ssS'0000000435'
p690
(dp691
g3
g4
sg5
I1366494612
sg6
S'camera'
p692
sg8
I959318442
ssS'0000000434'
p693
(dp694
g3
g4
sg5
I1366494612
sg6
S'camera'
p695
sg8
I939317643
ssS'0000000433'
p696
(dp697
g3
g4
sg5
I1366494612
sg6
S'camera'
p698
sg8
I919316880
ssS'0000000432'
p699
(dp700
g3
g4
sg5
I1366494612
sg6
S'camera'
p701
sg8
I899316125
ssS'0000000431'
p702
(dp703
g3
g4
sg5
I1366494612
sg6
S'camera'
p704
sg8
I879315348
ssS'0000000430'
p705
(dp706
g3
g4
sg5
I1366494612
sg6
S'camera'
p707
sg8
I859314587
ssS'0000000268'
p708
(dp709
g3
g4
sg5
I1366494609
sg6
S'camera'
p710
sg8
I619192009
ssS'0000000439'
p711
(dp712
g3
g4
sg5
I1366494613
sg6
S'camera'
p713
sg8
I39321439
ssS'0000000438'
p714
(dp715
g3
g4
sg5
I1366494613
sg6
S'camera'
p716
sg8
I19320697
ssS'0000000269'
p717
(dp718
g3
g4
sg5
I1366494609
sg6
S'camera'
p719
sg8
I639192786
ssS'0000000091'
p720
(dp721
g3
g4
sg5
I1366494606
sg6
S'camera'
p722
sg8
I79057891
ssS'0000000090'
p723
(dp724
g3
g4
sg5
I1366494606
sg6
S'camera'
p725
sg8
I59057147
ssS'0000000260'
p726
(dp727
g3
g4
sg5
I1366494609
sg6
S'camera'
p728
sg8
I459186001
ssS'0000000280'
p729
(dp730
g3
g4
sg5
I1366494609
sg6
S'camera'
p731
sg8
I859201007
ssS'0000000281'
p732
(dp733
g3
g4
sg5
I1366494609
sg6
S'camera'
p734
sg8
I879201776
ssS'0000000282'
p735
(dp736
g3
g4
sg5
I1366494609
sg6
S'camera'
p737
sg8
I899202545
ssS'0000000283'
p738
(dp739
g3
g4
sg5
I1366494609
sg6
S'camera'
p740
sg8
I919203294
ssS'0000000284'
p741
(dp742
g3
g4
sg5
I1366494609
sg6
S'camera'
p743
sg8
I939204072
ssS'0000000285'
p744
(dp745
g3
g4
sg5
I1366494609
sg6
S'camera'
p746
sg8
I959204831
ssS'0000000286'
p747
(dp748
g3
g4
sg5
I1366494609
sg6
S'camera'
p749
sg8
I979205597
ssS'0000000287'
p750
(dp751
g3
g4
sg5
I1366494609
sg6
S'camera'
p752
sg8
I999206334
ssS'0000000288'
p753
(dp754
g3
g4
sg5
I1366494610
sg6
S'camera'
p755
sg8
I19207042
ssS'0000000289'
p756
(dp757
g3
g4
sg5
I1366494610
sg6
S'camera'
p758
sg8
I39207778
ssS'0000000321'
p759
(dp760
g3
g4
sg5
I1366494610
sg6
S'camera'
p761
sg8
I679232126
ssS'0000000320'
p762
(dp763
g3
g4
sg5
I1366494610
sg6
S'camera'
p764
sg8
I659231376
ssS'0000000327'
p765
(dp766
g3
g4
sg5
I1366494610
sg6
S'camera'
p767
sg8
I799236607
ssS'0000000326'
p768
(dp769
g3
g4
sg5
I1366494610
sg6
S'camera'
p770
sg8
I779235867
ssS'0000000325'
p771
(dp772
g3
g4
sg5
I1366494610
sg6
S'camera'
p773
sg8
I759235134
ssS'0000000324'
p774
(dp775
g3
g4
sg5
I1366494610
sg6
S'camera'
p776
sg8
I739234414
ssS'0000000442'
p777
(dp778
g3
g4
sg5
I1366494613
sg6
S'camera'
p779
sg8
I99323672
ssS'0000000099'
p780
(dp781
g3
g4
sg5
I1366494606
sg6
S'camera'
p782
sg8
I239063993
ssS'0000000440'
p783
(dp784
g3
g4
sg5
I1366494613
sg6
S'camera'
p785
sg8
I59322205
ssS'0000000441'
p786
(dp787
g3
g4
sg5
I1366494613
sg6
S'camera'
p788
sg8
I79322908
ssS'0000000446'
p789
(dp790
g3
g4
sg5
I1366494613
sg6
S'camera'
p791
sg8
I179326781
ssS'0000000447'
p792
(dp793
g3
g4
sg5
I1366494613
sg6
S'camera'
p794
sg8
I199327498
ssS'0000000444'
p795
(dp796
g3
g4
sg5
I1366494613
sg6
S'camera'
p797
sg8
I139325124
ssS'0000000098'
p798
(dp799
g3
g4
sg5
I1366494606
sg6
S'camera'
p800
sg8
I219063241
ssS'0000000445'
p801
(dp802
g3
g4
sg5
I1366494613
sg6
S'camera'
p803
sg8
I159326022
ssS'0000000449'
p804
(dp805
g3
g4
sg5
I1366494613
sg6
S'camera'
p806
sg8
I239329021
ssS'0000000160'
p807
(dp808
g3
g4
sg5
I1366494607
sg6
S'camera'
p809
sg8
I459110254
ssS'0000000398'
p810
(dp811
g3
g4
sg5
I1366494612
sg6
S'camera'
p812
sg8
I219290449
ssS'0000000194'
p813
(dp814
g3
g4
sg5
I1366494608
sg6
S'camera'
p815
sg8
I139136055
ssS'0000000195'
p816
(dp817
g3
g4
sg5
I1366494608
sg6
S'camera'
p818
sg8
I159136771
ssS'0000000196'
p819
(dp820
g3
g4
sg5
I1366494608
sg6
S'camera'
p821
sg8
I179137489
ssS'0000000197'
p822
(dp823
g3
g4
sg5
I1366494608
sg6
S'camera'
p824
sg8
I199138247
ssS'0000000190'
p825
(dp826
g3
g4
sg5
I1366494608
sg6
S'camera'
p827
sg8
I59133054
ssS'0000000191'
p828
(dp829
g3
g4
sg5
I1366494608
sg6
S'camera'
p830
sg8
I79133818
ssS'0000000219'
p831
(dp832
g3
g4
sg5
I1366494608
sg6
S'camera'
p833
sg8
I639154809
ssS'0000000218'
p834
(dp835
g3
g4
sg5
I1366494608
sg6
S'camera'
p836
sg8
I619154047
ssS'0000000217'
p837
(dp838
g3
g4
sg5
I1366494608
sg6
S'camera'
p839
sg8
I599153279
ssS'0000000216'
p840
(dp841
g3
g4
sg5
I1366494608
sg6
S'camera'
p842
sg8
I579152520
ssS'0000000215'
p843
(dp844
g3
g4
sg5
I1366494608
sg6
S'camera'
p845
sg8
I559151776
ssS'0000000214'
p846
(dp847
g3
g4
sg5
I1366494608
sg6
S'camera'
p848
sg8
I539150948
ssS'0000000198'
p849
(dp850
g3
g4
sg5
I1366494608
sg6
S'camera'
p851
sg8
I219138985
ssS'0000000199'
p852
(dp853
g3
g4
sg5
I1366494608
sg6
S'camera'
p854
sg8
I239139681
ssS'0000000211'
p855
(dp856
g3
g4
sg5
I1366494608
sg6
S'camera'
p857
sg8
I479148660
ssS'0000000210'
p858
(dp859
g3
g4
sg5
I1366494608
sg6
S'camera'
p860
sg8
I459147900
ssS'0000000161'
p861
(dp862
g3
g4
sg5
I1366494607
sg6
S'camera'
p863
sg8
I479111041
ssS'0000000390'
p864
(dp865
g3
g4
sg5
I1366494612
sg6
S'camera'
p866
sg8
I59284500
ssS'0000000391'
p867
(dp868
g3
g4
sg5
I1366494612
sg6
S'camera'
p869
sg8
I79285245
ssS'0000000068'
p870
(dp871
g3
g4
sg5
I1366494605
sg6
S'camera'
p872
sg8
I619040644
ssS'0000000069'
p873
(dp874
g3
g4
sg5
I1366494605
sg6
S'camera'
p875
sg8
I639041365
ssS'0000000060'
p876
(dp877
g3
g4
sg5
I1366494605
sg6
S'camera'
p878
sg8
I459034894
ssS'0000000061'
p879
(dp880
g3
g4
sg5
I1366494605
sg6
S'camera'
p881
sg8
I479035610
ssS'0000000062'
p882
(dp883
g3
g4
sg5
I1366494605
sg6
S'camera'
p884
sg8
I499036331
ssS'0000000063'
p885
(dp886
g3
g4
sg5
I1366494605
sg6
S'camera'
p887
sg8
I519037051
ssS'0000000064'
p888
(dp889
g3
g4
sg5
I1366494605
sg6
S'camera'
p890
sg8
I539037779
ssS'0000000065'
p891
(dp892
g3
g4
sg5
I1366494605
sg6
S'camera'
p893
sg8
I559038499
ssS'0000000066'
p894
(dp895
g3
g4
sg5
I1366494605
sg6
S'camera'
p896
sg8
I579039220
ssS'0000000067'
p897
(dp898
g3
g4
sg5
I1366494605
sg6
S'camera'
p899
sg8
I599039933
ssS'0000000103'
p900
(dp901
g3
g4
sg5
I1366494606
sg6
S'camera'
p902
sg8
I319067095
ssS'0000000102'
p903
(dp904
g3
g4
sg5
I1366494606
sg6
S'camera'
p905
sg8
I299066340
ssS'0000000101'
p906
(dp907
g3
g4
sg5
I1366494606
sg6
S'camera'
p908
sg8
I279065569
ssS'0000000100'
p909
(dp910
g3
g4
sg5
I1366494606
sg6
S'camera'
p911
sg8
I259064817
ssS'0000000107'
p912
(dp913
g3
g4
sg5
I1366494606
sg6
S'camera'
p914
sg8
I399070150
ssS'0000000106'
p915
(dp916
g3
g4
sg5
I1366494606
sg6
S'camera'
p917
sg8
I379069408
ssS'0000000105'
p918
(dp919
g3
g4
sg5
I1366494606
sg6
S'camera'
p920
sg8
I359068640
ssS'0000000104'
p921
(dp922
g3
g4
sg5
I1366494606
sg6
S'camera'
p923
sg8
I339067827
ssS'0000000262'
p924
(dp925
g3
g4
sg5
I1366494609
sg6
S'camera'
p926
sg8
I499187508
ssS'0000000263'
p927
(dp928
g3
g4
sg5
I1366494609
sg6
S'camera'
p929
sg8
I519188263
ssS'0000000109'
p930
(dp931
g3
g4
sg5
I1366494606
sg6
S'camera'
p932
sg8
I439071670
ssS'0000000261'
p933
(dp934
g3
g4
sg5
I1366494609
sg6
S'camera'
p935
sg8
I479186752
ssS'0000000266'
p936
(dp937
g3
g4
sg5
I1366494609
sg6
S'camera'
p938
sg8
I579190517
ssS'0000000267'
p939
(dp940
g3
g4
sg5
I1366494609
sg6
S'camera'
p941
sg8
I599191255
ssS'0000000264'
p942
(dp943
g3
g4
sg5
I1366494609
sg6
S'camera'
p944
sg8
I539189004
ssS'0000000265'
p945
(dp946
g3
g4
sg5
I1366494609
sg6
S'camera'
p947
sg8
I559189750
ssS'0000000367'
p948
(dp949
g3
g4
sg5
I1366494611
sg6
S'camera'
p950
sg8
I599267105
ssS'0000000366'
p951
(dp952
g3
g4
sg5
I1366494611
sg6
S'camera'
p953
sg8
I579266345
ssS'0000000365'
p954
(dp955
g3
g4
sg5
I1366494611
sg6
S'camera'
p956
sg8
I559265555
ssS'0000000364'
p957
(dp958
g3
g4
sg5
I1366494611
sg6
S'camera'
p959
sg8
I539264797
ssS'0000000363'
p960
(dp961
g3
g4
sg5
I1366494611
sg6
S'camera'
p962
sg8
I519264033
ssS'0000000362'
p963
(dp964
g3
g4
sg5
I1366494611
sg6
S'camera'
p965
sg8
I499263276
ssS'0000000361'
p966
(dp967
g3
g4
sg5
I1366494611
sg6
S'camera'
p968
sg8
I479262518
ssS'0000000360'
p969
(dp970
g3
g4
sg5
I1366494611
sg6
S'camera'
p971
sg8
I459261805
ssS'0000000406'
p972
(dp973
g3
g4
sg5
I1366494612
sg6
S'camera'
p974
sg8
I379296528
ssS'0000000407'
p975
(dp976
g3
g4
sg5
I1366494612
sg6
S'camera'
p977
sg8
I399297274
ssS'0000000404'
p978
(dp979
g3
g4
sg5
I1366494612
sg6
S'camera'
p980
sg8
I339295003
ssS'0000000405'
p981
(dp982
g3
g4
sg5
I1366494612
sg6
S'camera'
p983
sg8
I359295764
ssS'0000000402'
p984
(dp985
g3
g4
sg5
I1366494612
sg6
S'camera'
p986
sg8
I299293474
ssS'0000000403'
p987
(dp988
g3
g4
sg5
I1366494612
sg6
S'camera'
p989
sg8
I319294234
ssS'0000000369'
p990
(dp991
g3
g4
sg5
I1366494611
sg6
S'camera'
p992
sg8
I639268609
ssS'0000000368'
p993
(dp994
g3
g4
sg5
I1366494611
sg6
S'camera'
p995
sg8
I619267860
ssS'0000000479'
p996
(dp997
g3
g4
sg5
I1366494613
sg6
S'camera'
p998
sg8
I839351668
ssS'0000000478'
p999
(dp1000
g3
g4
sg5
I1366494613
sg6
S'camera'
p1001
sg8
I819350929
ssS'0000000312'
p1002
(dp1003
g3
g4
sg5
I1366494610
sg6
S'camera'
p1004
sg8
I499225345
ssS'0000000313'
p1005
(dp1006
g3
g4
sg5
I1366494610
sg6
S'camera'
p1007
sg8
I519226093
ssS'0000000310'
p1008
(dp1009
g3
g4
sg5
I1366494610
sg6
S'camera'
p1010
sg8
I459223832
ssS'0000000311'
p1011
(dp1012
g3
g4
sg5
I1366494610
sg6
S'camera'
p1013
sg8
I479224597
ssS'0000000316'
p1014
(dp1015
g3
g4
sg5
I1366494610
sg6
S'camera'
p1016
sg8
I579228366
ssS'0000000317'
p1017
(dp1018
g3
g4
sg5
I1366494610
sg6
S'camera'
p1019
sg8
I599229112
ssS'0000000314'
p1020
(dp1021
g3
g4
sg5
I1366494610
sg6
S'camera'
p1022
sg8
I539226830
ssS'0000000315'
p1023
(dp1024
g3
g4
sg5
I1366494610
sg6
S'camera'
p1025
sg8
I559227595
ssS'0000000318'
p1026
(dp1027
g3
g4
sg5
I1366494610
sg6
S'camera'
p1028
sg8
I619229862
ssS'0000000319'
p1029
(dp1030
g3
g4
sg5
I1366494610
sg6
S'camera'
p1031
sg8
I639230600
ssS'0000000495'
p1032
(dp1033
g3
g4
sg5
I1366494614
sg6
S'camera'
p1034
sg8
I159363860
ssS'0000000494'
p1035
(dp1036
g3
g4
sg5
I1366494614
sg6
S'camera'
p1037
sg8
I139363041
ssS'0000000497'
p1038
(dp1039
g3
g4
sg5
I1366494614
sg6
S'camera'
p1040
sg8
I199365366
ssS'0000000496'
p1041
(dp1042
g3
g4
sg5
I1366494614
sg6
S'camera'
p1043
sg8
I179364610
ssS'0000000491'
p1044
(dp1045
g3
g4
sg5
I1366494614
sg6
S'camera'
p1046
sg8
I79360784
ssS'0000000490'
p1047
(dp1048
g3
g4
sg5
I1366494614
sg6
S'camera'
p1049
sg8
I59360033
ssS'0000000493'
p1050
(dp1051
g3
g4
sg5
I1366494614
sg6
S'camera'
p1052
sg8
I119362300
ssS'0000000492'
p1053
(dp1054
g3
g4
sg5
I1366494614
sg6
S'camera'
p1055
sg8
I99361544
ssS'0000000499'
p1056
(dp1057
g3
g4
sg5
I1366494614
sg6
S'camera'
p1058
sg8
I239366853
ssS'0000000498'
p1059
(dp1060
g3
g4
sg5
I1366494614
sg6
S'camera'
p1061
sg8
I219366116
ssS'0000000149'
p1062
(dp1063
g3
g4
sg5
I1366494607
sg6
S'camera'
p1064
sg8
I239101897
ssS'0000000148'
p1065
(dp1066
g3
g4
sg5
I1366494607
sg6
S'camera'
p1067
sg8
I219101164
ssS'0000000147'
p1068
(dp1069
g3
g4
sg5
I1366494607
sg6
S'camera'
p1070
sg8
I199100410
ssS'0000000146'
p1071
(dp1072
g3
g4
sg5
I1366494607
sg6
S'camera'
p1073
sg8
I179099645
ssS'0000000145'
p1074
(dp1075
g3
g4
sg5
I1366494607
sg6
S'camera'
p1076
sg8
I159098881
ssS'0000000144'
p1077
(dp1078
g3
g4
sg5
I1366494607
sg6
S'camera'
p1079
sg8
I139098136
ssS'0000000143'
p1080
(dp1081
g3
g4
sg5
I1366494607
sg6
S'camera'
p1082
sg8
I119097395
ssS'0000000142'
p1083
(dp1084
g3
g4
sg5
I1366494607
sg6
S'camera'
p1085
sg8
I99096547
ssS'0000000141'
p1086
(dp1087
g3
g4
sg5
I1366494607
sg6
S'camera'
p1088
sg8
I79095781
ssS'0000000140'
p1089
(dp1090
g3
g4
sg5
I1366494607
sg6
S'camera'
p1091
sg8
I59095040
ssS'0000000226'
p1092
(dp1093
g3
g4
sg5
I1366494608
sg6
S'camera'
p1094
sg8
I779160324
ssS'0000000227'
p1095
(dp1096
g3
g4
sg5
I1366494608
sg6
S'camera'
p1097
sg8
I799161036
ssS'0000000224'
p1098
(dp1099
g3
g4
sg5
I1366494608
sg6
S'camera'
p1100
sg8
I739158596
ssS'0000000225'
p1101
(dp1102
g3
g4
sg5
I1366494608
sg6
S'camera'
p1103
sg8
I759159563
ssS'0000000222'
p1104
(dp1105
g3
g4
sg5
I1366494608
sg6
S'camera'
p1106
sg8
I699157080
ssS'0000000223'
p1107
(dp1108
g3
g4
sg5
I1366494608
sg6
S'camera'
p1109
sg8
I719157833
ssS'0000000220'
p1110
(dp1111
g3
g4
sg5
I1366494608
sg6
S'camera'
p1112
sg8
I659155552
ssS'0000000221'
p1113
(dp1114
g3
g4
sg5
I1366494608
sg6
S'camera'
p1115
sg8
I679156319
ssS'0000000381'
p1116
(dp1117
g3
g4
sg5
I1366494611
sg6
S'camera'
p1118
sg8
I879277689
ssS'0000000380'
p1119
(dp1120
g3
g4
sg5
I1366494611
sg6
S'camera'
p1121
sg8
I859276930
ssS'0000000383'
p1122
(dp1123
g3
g4
sg5
I1366494611
sg6
S'camera'
p1124
sg8
I919279212
ssS'0000000359'
p1125
(dp1126
g3
g4
sg5
I1366494611
sg6
S'camera'
p1127
sg8
I439261025
ssS'0000000385'
p1128
(dp1129
g3
g4
sg5
I1366494611
sg6
S'camera'
p1130
sg8
I959280697
ssS'0000000384'
p1131
(dp1132
g3
g4
sg5
I1366494611
sg6
S'camera'
p1133
sg8
I939279932
ssS'0000000228'
p1134
(dp1135
g3
g4
sg5
I1366494608
sg6
S'camera'
p1136
sg8
I819161764
ssS'0000000229'
p1137
(dp1138
g3
g4
sg5
I1366494608
sg6
S'camera'
p1139
sg8
I839162522
ssS'0000000350'
p1140
(dp1141
g3
g4
sg5
I1366494611
sg6
S'camera'
p1142
sg8
I259254290
ssS'0000000351'
p1143
(dp1144
g3
g4
sg5
I1366494611
sg6
S'camera'
p1145
sg8
I279255001
ssS'0000000033'
p1146
(dp1147
g3
g4
sg5
I1366494604
sg6
S'camera'
p1148
sg8
I919014713
ssS'0000000032'
p1149
(dp1150
g3
g4
sg5
I1366494604
sg6
S'camera'
p1151
sg8
I899013946
ssS'0000000138'
p1152
(dp1153
g3
g4
sg5
I1366494607
sg6
S'camera'
p1154
sg8
I19093497
ssS'0000000139'
p1155
(dp1156
g3
g4
sg5
I1366494607
sg6
S'camera'
p1157
sg8
I39094225
ssS'0000000037'
p1158
(dp1159
g3
g4
sg5
I1366494604
sg6
S'camera'
p1160
sg8
I999017668
ssS'0000000036'
p1161
(dp1162
g3
g4
sg5
I1366494604
sg6
S'camera'
p1163
sg8
I979016905
ssS'0000000035'
p1164
(dp1165
g3
g4
sg5
I1366494604
sg6
S'camera'
p1166
sg8
I959016162
ssS'0000000034'
p1167
(dp1168
g3
g4
sg5
I1366494604
sg6
S'camera'
p1169
sg8
I939015431
ssS'0000000132'
p1170
(dp1171
g3
g4
sg5
I1366494606
sg6
S'camera'
p1172
sg8
I899088975
ssS'0000000133'
p1173
(dp1174
g3
g4
sg5
I1366494606
sg6
S'camera'
p1175
sg8
I919089717
ssS'0000000130'
p1176
(dp1177
g3
g4
sg5
I1366494606
sg6
S'camera'
p1178
sg8
I859087485
ssS'0000000131'
p1179
(dp1180
g3
g4
sg5
I1366494606
sg6
S'camera'
p1181
sg8
I879088248
ssS'0000000136'
p1182
(dp1183
g3
g4
sg5
I1366494606
sg6
S'camera'
p1184
sg8
I979091976
ssS'0000000137'
p1185
(dp1186
g3
g4
sg5
I1366494606
sg6
S'camera'
p1187
sg8
I999092735
ssS'0000000134'
p1188
(dp1189
g3
g4
sg5
I1366494606
sg6
S'camera'
p1190
sg8
I939090473
ssS'0000000135'
p1191
(dp1192
g3
g4
sg5
I1366494606
sg6
S'camera'
p1193
sg8
I959091212
ssS'0000000454'
p1194
(dp1195
g3
g4
sg5
I1366494613
sg6
S'camera'
p1196
sg8
I339332799
ssS'0000000458'
p1197
(dp1198
g3
g4
sg5
I1366494613
sg6
S'camera'
p1199
sg8
I419335911
ssS'0000000408'
p1200
(dp1201
g3
g4
sg5
I1366494612
sg6
S'camera'
p1202
sg8
I419298023
ssS'0000000409'
p1203
(dp1204
g3
g4
sg5
I1366494612
sg6
S'camera'
p1205
sg8
I439298764
ssS'0000000297'
p1206
(dp1207
g3
g4
sg5
I1366494610
sg6
S'camera'
p1208
sg8
I199213907
ssS'0000000296'
p1209
(dp1210
g3
g4
sg5
I1366494610
sg6
S'camera'
p1211
sg8
I179213161
ssS'0000000295'
p1212
(dp1213
g3
g4
sg5
I1366494610
sg6
S'camera'
p1214
sg8
I159212403
ssS'0000000294'
p1215
(dp1216
g3
g4
sg5
I1366494610
sg6
S'camera'
p1217
sg8
I139211569
ssS'0000000293'
p1218
(dp1219
g3
g4
sg5
I1366494610
sg6
S'camera'
p1220
sg8
I119210831
ssS'0000000292'
p1221
(dp1222
g3
g4
sg5
I1366494610
sg6
S'camera'
p1223
sg8
I99210063
ssS'0000000291'
p1224
(dp1225
g3
g4
sg5
I1366494610
sg6
S'camera'
p1226
sg8
I79209304
ssS'0000000290'
p1227
(dp1228
g3
g4
sg5
I1366494610
sg6
S'camera'
p1229
sg8
I59208565
ssS'0000000356'
p1230
(dp1231
g3
g4
sg5
I1366494611
sg6
S'camera'
p1232
sg8
I379258810
ssS'0000000357'
p1233
(dp1234
g3
g4
sg5
I1366494611
sg6
S'camera'
p1235
sg8
I399259568
ssS'0000000354'
p1236
(dp1237
g3
g4
sg5
I1366494611
sg6
S'camera'
p1238
sg8
I339257228
ssS'0000000355'
p1239
(dp1240
g3
g4
sg5
I1366494611
sg6
S'camera'
p1241
sg8
I359258049
ssS'0000000352'
p1242
(dp1243
g3
g4
sg5
I1366494611
sg6
S'camera'
p1244
sg8
I299255748
ssS'0000000353'
p1245
(dp1246
g3
g4
sg5
I1366494611
sg6
S'camera'
p1247
sg8
I319256503
ssS'0000000299'
p1248
(dp1249
g3
g4
sg5
I1366494610
sg6
S'camera'
p1250
sg8
I239215411
ssS'0000000298'
p1251
(dp1252
g3
g4
sg5
I1366494610
sg6
S'camera'
p1253
sg8
I219214674
ssS'0000000451'
p1254
(dp1255
g3
g4
sg5
I1366494613
sg6
S'camera'
p1256
sg8
I279330552
ssS'0000000450'
p1257
(dp1258
g3
g4
sg5
I1366494613
sg6
S'camera'
p1259
sg8
I259329790
ssS'0000000453'
p1260
(dp1261
g3
g4
sg5
I1366494613
sg6
S'camera'
p1262
sg8
I319332078
ssS'0000000452'
p1263
(dp1264
g3
g4
sg5
I1366494613
sg6
S'camera'
p1265
sg8
I299331318
ssS'0000000455'
p1266
(dp1267
g3
g4
sg5
I1366494613
sg6
S'camera'
p1268
sg8
I359333634
ssS'0000000400'
p1269
(dp1270
g3
g4
sg5
I1366494612
sg6
S'camera'
p1271
sg8
I259291967
ssS'0000000457'
p1272
(dp1273
g3
g4
sg5
I1366494613
sg6
S'camera'
p1274
sg8
I399335143
ssS'0000000456'
p1275
(dp1276
g3
g4
sg5
I1366494613
sg6
S'camera'
p1277
sg8
I379334407
ssS'0000000459'
p1278
(dp1279
g3
g4
sg5
I1366494613
sg6
S'camera'
p1280
sg8
I439336650
ssS'0000000051'
p1281
(dp1282
g3
g4
sg5
I1366494605
sg6
S'camera'
p1283
sg8
I279028218
ssS'0000000401'
p1284
(dp1285
g3
g4
sg5
I1366494612
sg6
S'camera'
p1286
sg8
I279292716
ssS'0000000050'
p1287
(dp1288
g3
g4
sg5
I1366494605
sg6
S'camera'
p1289
sg8
I259027457
ssS'0000000087'
p1290
(dp1291
g3
g4
sg5
I1366494605
sg6
S'camera'
p1292
sg8
I999054904
ssS'0000000189'
p1293
(dp1294
g3
g4
sg5
I1366494608
sg6
S'camera'
p1295
sg8
I39132271
ssS'0000000188'
p1296
(dp1297
g3
g4
sg5
I1366494608
sg6
S'camera'
p1298
sg8
I19131528
ssS'0000000183'
p1299
(dp1300
g3
g4
sg5
I1366494607
sg6
S'camera'
p1301
sg8
I919127765
ssS'0000000110'
p1302
(dp1303
g3
g4
sg5
I1366494606
sg6
S'camera'
p1304
sg8
I459072410
ssS'0000000181'
p1305
(dp1306
g3
g4
sg5
I1366494607
sg6
S'camera'
p1307
sg8
I879126234
ssS'0000000180'
p1308
(dp1309
g3
g4
sg5
I1366494607
sg6
S'camera'
p1310
sg8
I859125500
ssS'0000000187'
p1311
(dp1312
g3
g4
sg5
I1366494607
sg6
S'camera'
p1313
sg8
I999130774
ssS'0000000186'
p1314
(dp1315
g3
g4
sg5
I1366494607
sg6
S'camera'
p1316
sg8
I979130016
ssS'0000000185'
p1317
(dp1318
g3
g4
sg5
I1366494607
sg6
S'camera'
p1319
sg8
I959129259
ssS'0000000111'
p1320
(dp1321
g3
g4
sg5
I1366494606
sg6
S'camera'
p1322
sg8
I479073150
ssS'0000000089'
p1323
(dp1324
g3
g4
sg5
I1366494606
sg6
S'camera'
p1325
sg8
I39056402
ssS'0000000079'
p1326
(dp1327
g3
g4
sg5
I1366494605
sg6
S'camera'
p1328
sg8
I839048841
ssS'0000000078'
p1329
(dp1330
g3
g4
sg5
I1366494605
sg6
S'camera'
p1331
sg8
I819048100
ssS'0000000077'
p1332
(dp1333
g3
g4
sg5
I1366494605
sg6
S'camera'
p1334
sg8
I799047320
ssS'0000000076'
p1335
(dp1336
g3
g4
sg5
I1366494605
sg6
S'camera'
p1337
sg8
I779046565
ssS'0000000075'
p1338
(dp1339
g3
g4
sg5
I1366494605
sg6
S'camera'
p1340
sg8
I759045802
ssS'0000000074'
p1341
(dp1342
g3
g4
sg5
I1366494605
sg6
S'camera'
p1343
sg8
I739045062
ssS'0000000073'
p1344
(dp1345
g3
g4
sg5
I1366494605
sg6
S'camera'
p1346
sg8
I719044340
ssS'0000000072'
p1347
(dp1348
g3
g4
sg5
I1366494605
sg6
S'camera'
p1349
sg8
I699043601
ssS'0000000071'
p1350
(dp1351
g3
g4
sg5
I1366494605
sg6
S'camera'
p1352
sg8
I679042865
ssS'0000000070'
p1353
(dp1354
g3
g4
sg5
I1366494605
sg6
S'camera'
p1355
sg8
I659042129
ssS'0000000279'
p1356
(dp1357
g3
g4
sg5
I1366494609
sg6
S'camera'
p1358
sg8
I839200280
ssS'0000000278'
p1359
(dp1360
g3
g4
sg5
I1366494609
sg6
S'camera'
p1361
sg8
I819199538
ssS'0000000174'
p1362
(dp1363
g3
g4
sg5
I1366494607
sg6
S'camera'
p1364
sg8
I739120962
ssS'0000000175'
p1365
(dp1366
g3
g4
sg5
I1366494607
sg6
S'camera'
p1367
sg8
I759121694
ssS'0000000172'
p1368
(dp1369
g3
g4
sg5
I1366494607
sg6
S'camera'
p1370
sg8
I699119433
ssS'0000000173'
p1371
(dp1372
g3
g4
sg5
I1366494607
sg6
S'camera'
p1373
sg8
I719120198
ssS'0000000170'
p1374
(dp1375
g3
g4
sg5
I1366494607
sg6
S'camera'
p1376
sg8
I659117896
ssS'0000000171'
p1377
(dp1378
g3
g4
sg5
I1366494607
sg6
S'camera'
p1379
sg8
I679118657
ssS'0000000271'
p1380
(dp1381
g3
g4
sg5
I1366494609
sg6
S'camera'
p1382
sg8
I679194283
ssS'0000000270'
p1383
(dp1384
g3
g4
sg5
I1366494609
sg6
S'camera'
p1385
sg8
I659193521
ssS'0000000273'
p1386
(dp1387
g3
g4
sg5
I1366494609
sg6
S'camera'
p1388
sg8
I719195756
ssS'0000000272'
p1389
(dp1390
g3
g4
sg5
I1366494609
sg6
S'camera'
p1391
sg8
I699195028
ssS'0000000275'
p1392
(dp1393
g3
g4
sg5
I1366494609
sg6
S'camera'
p1394
sg8
I759197275
ssS'0000000274'
p1395
(dp1396
g3
g4
sg5
I1366494609
sg6
S'camera'
p1397
sg8
I739196510
ssS'0000000178'
p1398
(dp1399
g3
g4
sg5
I1366494607
sg6
S'camera'
p1400
sg8
I819123874
ssS'0000000276'
p1401
(dp1402
g3
g4
sg5
I1366494609
sg6
S'camera'
p1403
sg8
I779198022
ssS'0000000240'
p1404
(dp1405
g3
g4
sg5
I1366494609
sg6
S'camera'
p1406
sg8
I59170824
ssS'0000000241'
p1407
(dp1408
g3
g4
sg5
I1366494609
sg6
S'camera'
p1409
sg8
I79171578
ssS'0000000008'
p1410
(dp1411
g3
g4
sg5
I1366494604
sg6
S'camera'
p1412
sg8
I418995849
ssS'0000000009'
p1413
(dp1414
g3
g4
sg5
I1366494604
sg6
S'camera'
p1415
sg8
I438996610
ssS'0000000002'
p1416
(dp1417
g3
g4
sg5
I1366494604
sg6
S'camera'
p1418
sg8
I298991334
ssS'0000000003'
p1419
(dp1420
g3
g4
sg5
I1366494604
sg6
S'camera'
p1421
sg8
I318992071
ssS'0000000001'
p1422
(dp1423
g3
g4
sg5
I1366494604
sg6
S'camera'
p1424
sg8
I278990569
ssS'0000000006'
p1425
(dp1426
g3
g4
sg5
I1366494604
sg6
S'camera'
p1427
sg8
I378994356
ssS'0000000007'
p1428
(dp1429
g3
g4
sg5
I1366494604
sg6
S'camera'
p1430
sg8
I398995093
ssS'0000000004'
p1431
(dp1432
g3
g4
sg5
I1366494604
sg6
S'camera'
p1433
sg8
I338992817
ssS'0000000005'
p1434
(dp1435
g3
g4
sg5
I1366494604
sg6
S'camera'
p1436
sg8
I358993576
ssS'0000000182'
p1437
(dp1438
g3
g4
sg5
I1366494607
sg6
S'camera'
p1439
sg8
I899126990
ssS'0000000419'
p1440
(dp1441
g3
g4
sg5
I1366494612
sg6
S'camera'
p1442
sg8
I639306289
ssS'0000000418'
p1443
(dp1444
g3
g4
sg5
I1366494612
sg6
S'camera'
p1445
sg8
I619305550
ssS'0000000415'
p1446
(dp1447
g3
g4
sg5
I1366494612
sg6
S'camera'
p1448
sg8
I559303285
ssS'0000000414'
p1449
(dp1450
g3
g4
sg5
I1366494612
sg6
S'camera'
p1451
sg8
I539302504
ssS'0000000417'
p1452
(dp1453
g3
g4
sg5
I1366494612
sg6
S'camera'
p1454
sg8
I599304785
ssS'0000000416'
p1455
(dp1456
g3
g4
sg5
I1366494612
sg6
S'camera'
p1457
sg8
I579304038
ssS'0000000411'
p1458
(dp1459
g3
g4
sg5
I1366494612
sg6
S'camera'
p1460
sg8
I479300277
ssS'0000000410'
p1461
(dp1462
g3
g4
sg5
I1366494612
sg6
S'camera'
p1463
sg8
I459299514
ssS'0000000413'
p1464
(dp1465
g3
g4
sg5
I1366494612
sg6
S'camera'
p1466
sg8
I519301771
ssS'0000000412'
p1467
(dp1468
g3
g4
sg5
I1366494612
sg6
S'camera'
p1469
sg8
I499301042
ssS'0000000184'
p1470
(dp1471
g3
g4
sg5
I1366494607
sg6
S'camera'
p1472
sg8
I939128505
ssS'0000000030'
p1473
(dp1474
g3
g4
sg5
I1366494604
sg6
S'camera'
p1475
sg8
I859012448
ssS'0000000301'
p1476
(dp1477
g3
g4
sg5
I1366494610
sg6
S'camera'
p1478
sg8
I279216901
ssS'0000000300'
p1479
(dp1480
g3
g4
sg5
I1366494610
sg6
S'camera'
p1481
sg8
I259216136
ssS'0000000303'
p1482
(dp1483
g3
g4
sg5
I1366494610
sg6
S'camera'
p1484
sg8
I319218426
ssS'0000000302'
p1485
(dp1486
g3
g4
sg5
I1366494610
sg6
S'camera'
p1487
sg8
I299217664
ssS'0000000305'
p1488
(dp1489
g3
g4
sg5
I1366494610
sg6
S'camera'
p1490
sg8
I359219982
ssS'0000000304'
p1491
(dp1492
g3
g4
sg5
I1366494610
sg6
S'camera'
p1493
sg8
I339219168
ssS'0000000307'
p1494
(dp1495
g3
g4
sg5
I1366494610
sg6
S'camera'
p1496
sg8
I399221496
ssS'0000000306'
p1497
(dp1498
g3
g4
sg5
I1366494610
sg6
S'camera'
p1499
sg8
I379220727
ssS'0000000309'
p1500
(dp1501
g3
g4
sg5
I1366494610
sg6
S'camera'
p1502
sg8
I439222984
ssS'0000000308'
p1503
(dp1504
g3
g4
sg5
I1366494610
sg6
S'camera'
p1505
sg8
I419222248
ssS'0000000235'
p1506
(dp1507
g3
g4
sg5
I1366494608
sg6
S'camera'
p1508
sg8
I959167090
ssS'0000000234'
p1509
(dp1510
g3
g4
sg5
I1366494608
sg6
S'camera'
p1511
sg8
I939166272
ssS'0000000237'
p1512
(dp1513
g3
g4
sg5
I1366494608
sg6
S'camera'
p1514
sg8
I999168541
ssS'0000000236'
p1515
(dp1516
g3
g4
sg5
I1366494608
sg6
S'camera'
p1517
sg8
I979167816
ssS'0000000231'
p1518
(dp1519
g3
g4
sg5
I1366494608
sg6
S'camera'
p1520
sg8
I879164056
ssS'0000000230'
p1521
(dp1522
g3
g4
sg5
I1366494608
sg6
S'camera'
p1523
sg8
I859163293
ssS'0000000233'
p1524
(dp1525
g3
g4
sg5
I1366494608
sg6
S'camera'
p1526
sg8
I919165533
ssS'0000000232'
p1527
(dp1528
g3
g4
sg5
I1366494608
sg6
S'camera'
p1529
sg8
I899164815
ssS'0000000239'
p1530
(dp1531
g3
g4
sg5
I1366494609
sg6
S'camera'
p1532
sg8
I39170015
ssS'0000000238'
p1533
(dp1534
g3
g4
sg5
I1366494609
sg6
S'camera'
p1535
sg8
I19169292
ss.